	.section	__TEXT,__text,regular,pure_instructions
	.build_version macos, 12, 0	sdk_version 12, 3
	.globl	__Z11action2costiNSt3__16vectorIiNS_9allocatorIiEEEE ; -- Begin function _Z11action2costiNSt3__16vectorIiNS_9allocatorIiEEEE
	.p2align	2
__Z11action2costiNSt3__16vectorIiNS_9allocatorIiEEEE: ; @_Z11action2costiNSt3__16vectorIiNS_9allocatorIiEEEE
	.cfi_startproc
; %bb.0:
	ldr	x8, [x1]
	ldr	w9, [x8, #8]
	cmp	w9, w0
	b.ne	LBB0_2
; %bb.1:
	ldp	s0, s1, [x8]
	sshll.2d	v0, v0, #0
	scvtf	d0, d0
	sshll.2d	v1, v1, #0
	scvtf	d1, d1
	b	_hypot
LBB0_2:
	mov	x8, #11544
	movk	x8, #21572, lsl #16
	movk	x8, #8699, lsl #32
	movk	x8, #16377, lsl #48
	fmov	d0, x8
	ret
	.cfi_endproc
                                        ; -- End function
	.globl	__ZN17StateLatticeGraphC2EiiRK9ActionSet ; -- Begin function _ZN17StateLatticeGraphC2EiiRK9ActionSet
	.p2align	2
__ZN17StateLatticeGraphC2EiiRK9ActionSet: ; @_ZN17StateLatticeGraphC2EiiRK9ActionSet
Lfunc_begin0:
	.cfi_startproc
	.cfi_personality 155, ___gxx_personality_v0
	.cfi_lsda 16, Lexception0
; %bb.0:
	stp	x26, x25, [sp, #-80]!           ; 16-byte Folded Spill
	stp	x24, x23, [sp, #16]             ; 16-byte Folded Spill
	stp	x22, x21, [sp, #32]             ; 16-byte Folded Spill
	stp	x20, x19, [sp, #48]             ; 16-byte Folded Spill
	stp	x29, x30, [sp, #64]             ; 16-byte Folded Spill
	add	x29, sp, #64
	.cfi_def_cfa w29, 16
	.cfi_offset w30, -8
	.cfi_offset w29, -16
	.cfi_offset w19, -24
	.cfi_offset w20, -32
	.cfi_offset w21, -40
	.cfi_offset w22, -48
	.cfi_offset w23, -56
	.cfi_offset w24, -64
	.cfi_offset w25, -72
	.cfi_offset w26, -80
	mov	x22, x3
	mov	x23, x2
	mov	x24, x1
	mov	x20, x0
	movi.2d	v0, #0000000000000000
	mov	x19, x0
	str	q0, [x19, #16]!
	mov	x21, x0
	strb	wzr, [x21, #64]!
	str	xzr, [x0, #72]
	stp	q0, q0, [x0, #32]
	mov	x0, x21
	mov	w1, #1
	bl	__ZNK8nlohmann10basic_jsonINSt3__13mapENS1_6vectorENS1_12basic_stringIcNS1_11char_traitsIcEENS1_9allocatorIcEEEEbxydS7_NS_14adl_serializerENS3_IhNS7_IhEEEEE16assert_invariantEb
	mov	x0, x21
	mov	w1, #1
	bl	__ZNK8nlohmann10basic_jsonINSt3__13mapENS1_6vectorENS1_12basic_stringIcNS1_11char_traitsIcEENS1_9allocatorIcEEEEbxydS7_NS_14adl_serializerENS3_IhNS7_IhEEEEE16assert_invariantEb
	mov	x25, x20
	strb	wzr, [x25, #80]!
	str	xzr, [x20, #88]
	mov	x0, x25
	mov	w1, #1
	bl	__ZNK8nlohmann10basic_jsonINSt3__13mapENS1_6vectorENS1_12basic_stringIcNS1_11char_traitsIcEENS1_9allocatorIcEEEEbxydS7_NS_14adl_serializerENS3_IhNS7_IhEEEEE16assert_invariantEb
	mov	x0, x25
	mov	w1, #1
	bl	__ZNK8nlohmann10basic_jsonINSt3__13mapENS1_6vectorENS1_12basic_stringIcNS1_11char_traitsIcEENS1_9allocatorIcEEEEbxydS7_NS_14adl_serializerENS3_IhNS7_IhEEEEE16assert_invariantEb
	mov	w8, #8
	stp	w24, w23, [x20]
	mul	w9, w24, w23
	lsl	w9, w9, #3
	stp	w8, w9, [x20, #8]
	mov	x0, x21
	mov	x1, x22
	bl	__ZN9ActionSetaSERKS_
Ltmp0:
	mov	x0, x20
	bl	__ZN17StateLatticeGraph11build_graphEv
Ltmp1:
; %bb.1:
	mov	x0, x20
	ldp	x29, x30, [sp, #64]             ; 16-byte Folded Reload
	ldp	x20, x19, [sp, #48]             ; 16-byte Folded Reload
	ldp	x22, x21, [sp, #32]             ; 16-byte Folded Reload
	ldp	x24, x23, [sp, #16]             ; 16-byte Folded Reload
	ldp	x26, x25, [sp], #80             ; 16-byte Folded Reload
	ret
LBB1_2:
Ltmp2:
	mov	x22, x0
	add	x20, x20, #40
	mov	x0, x21
	bl	__ZN9ActionSetD1Ev
	mov	x0, x20
	bl	__ZNSt3__16vectorINS0_I11LatticeEdgeNS_9allocatorIS1_EEEENS2_IS4_EEED1Ev
	mov	x0, x19
	bl	__ZNSt3__16vectorI11LatticeNodeNS_9allocatorIS1_EEED1Ev
	mov	x0, x22
	bl	___clang_call_terminate
Lfunc_end0:
	.cfi_endproc
	.section	__TEXT,__gcc_except_tab
	.p2align	2
GCC_except_table1:
Lexception0:
	.byte	255                             ; @LPStart Encoding = omit
	.byte	155                             ; @TType Encoding = indirect pcrel sdata4
	.uleb128 Lttbase0-Lttbaseref0
Lttbaseref0:
	.byte	1                               ; Call site Encoding = uleb128
	.uleb128 Lcst_end0-Lcst_begin0
Lcst_begin0:
	.uleb128 Ltmp0-Lfunc_begin0             ; >> Call Site 1 <<
	.uleb128 Ltmp1-Ltmp0                    ;   Call between Ltmp0 and Ltmp1
	.uleb128 Ltmp2-Lfunc_begin0             ;     jumps to Ltmp2
	.byte	1                               ;   On action: 1
Lcst_end0:
	.byte	1                               ; >> Action Record 1 <<
                                        ;   Catch TypeInfo 1
	.byte	0                               ;   No further actions
	.p2align	2
                                        ; >> Catch TypeInfos <<
	.long	0                               ; TypeInfo 1
Lttbase0:
	.p2align	2
                                        ; -- End function
	.section	__TEXT,__text,regular,pure_instructions
	.globl	__ZN9ActionSetaSERKS_           ; -- Begin function _ZN9ActionSetaSERKS_
	.weak_def_can_be_hidden	__ZN9ActionSetaSERKS_
	.p2align	2
__ZN9ActionSetaSERKS_:                  ; @_ZN9ActionSetaSERKS_
Lfunc_begin1:
	.cfi_startproc
	.cfi_personality 155, ___gxx_personality_v0
	.cfi_lsda 16, Lexception1
; %bb.0:
	sub	sp, sp, #80
	stp	x22, x21, [sp, #32]             ; 16-byte Folded Spill
	stp	x20, x19, [sp, #48]             ; 16-byte Folded Spill
	stp	x29, x30, [sp, #64]             ; 16-byte Folded Spill
	add	x29, sp, #64
	.cfi_def_cfa w29, 16
	.cfi_offset w30, -8
	.cfi_offset w29, -16
	.cfi_offset w19, -24
	.cfi_offset w20, -32
	.cfi_offset w21, -40
	.cfi_offset w22, -48
	mov	x20, x1
	mov	x19, x0
Ltmp3:
	add	x21, sp, #16
	add	x0, sp, #16
	bl	__ZN8nlohmann10basic_jsonINSt3__13mapENS1_6vectorENS1_12basic_stringIcNS1_11char_traitsIcEENS1_9allocatorIcEEEEbxydS7_NS_14adl_serializerENS3_IhNS7_IhEEEEEC2ERKSD_
Ltmp4:
; %bb.1:                                ; %_ZN8nlohmann10basic_jsonINSt3__13mapENS1_6vectorENS1_12basic_stringIcNS1_11char_traitsIcEENS1_9allocatorIcEEEEbxydS7_NS_14adl_serializerENS3_IhNS7_IhEEEEEC1ERKSD_.exit
	add	x0, sp, #16
	mov	w1, #1
	bl	__ZNK8nlohmann10basic_jsonINSt3__13mapENS1_6vectorENS1_12basic_stringIcNS1_11char_traitsIcEENS1_9allocatorIcEEEEbxydS7_NS_14adl_serializerENS3_IhNS7_IhEEEEE16assert_invariantEb
	ldrb	w8, [x19]
	ldrb	w9, [sp, #16]
	strb	w9, [x19]
	strb	w8, [sp, #16]
	add	x21, x21, #8
	ldr	x8, [x19, #8]
	ldr	x9, [sp, #24]
	str	x9, [x19, #8]
	str	x8, [sp, #24]
	mov	x0, x19
	mov	w1, #1
	bl	__ZNK8nlohmann10basic_jsonINSt3__13mapENS1_6vectorENS1_12basic_stringIcNS1_11char_traitsIcEENS1_9allocatorIcEEEEbxydS7_NS_14adl_serializerENS3_IhNS7_IhEEEEE16assert_invariantEb
	add	x0, sp, #16
	mov	w1, #0
	bl	__ZNK8nlohmann10basic_jsonINSt3__13mapENS1_6vectorENS1_12basic_stringIcNS1_11char_traitsIcEENS1_9allocatorIcEEEEbxydS7_NS_14adl_serializerENS3_IhNS7_IhEEEEE16assert_invariantEb
	ldrb	w1, [sp, #16]
Ltmp5:
	mov	x0, x21
	bl	__ZN8nlohmann10basic_jsonINSt3__13mapENS1_6vectorENS1_12basic_stringIcNS1_11char_traitsIcEENS1_9allocatorIcEEEEbxydS7_NS_14adl_serializerENS3_IhNS7_IhEEEEE10json_value7destroyENS_6detail7value_tE
Ltmp6:
; %bb.2:                                ; %_ZN8nlohmann10basic_jsonINSt3__13mapENS1_6vectorENS1_12basic_stringIcNS1_11char_traitsIcEENS1_9allocatorIcEEEEbxydS7_NS_14adl_serializerENS3_IhNS7_IhEEEEED1Ev.exit
	add	x1, x20, #16
Ltmp8:
	mov	x20, sp
	mov	x0, sp
	bl	__ZN8nlohmann10basic_jsonINSt3__13mapENS1_6vectorENS1_12basic_stringIcNS1_11char_traitsIcEENS1_9allocatorIcEEEEbxydS7_NS_14adl_serializerENS3_IhNS7_IhEEEEEC2ERKSD_
Ltmp9:
; %bb.3:                                ; %_ZN8nlohmann10basic_jsonINSt3__13mapENS1_6vectorENS1_12basic_stringIcNS1_11char_traitsIcEENS1_9allocatorIcEEEEbxydS7_NS_14adl_serializerENS3_IhNS7_IhEEEEEC1ERKSD_.exit3
	mov	x0, sp
	mov	w1, #1
	bl	__ZNK8nlohmann10basic_jsonINSt3__13mapENS1_6vectorENS1_12basic_stringIcNS1_11char_traitsIcEENS1_9allocatorIcEEEEbxydS7_NS_14adl_serializerENS3_IhNS7_IhEEEEE16assert_invariantEb
	mov	x0, x19
	ldrb	w8, [x0, #16]!
	ldrb	w9, [sp]
	strb	w9, [x0]
	strb	w8, [sp]
	add	x20, x20, #8
	ldr	x8, [x0, #8]
	ldr	x9, [sp, #8]
	str	x9, [x0, #8]
	str	x8, [sp, #8]
	mov	w1, #1
	bl	__ZNK8nlohmann10basic_jsonINSt3__13mapENS1_6vectorENS1_12basic_stringIcNS1_11char_traitsIcEENS1_9allocatorIcEEEEbxydS7_NS_14adl_serializerENS3_IhNS7_IhEEEEE16assert_invariantEb
	mov	x0, sp
	mov	w1, #0
	bl	__ZNK8nlohmann10basic_jsonINSt3__13mapENS1_6vectorENS1_12basic_stringIcNS1_11char_traitsIcEENS1_9allocatorIcEEEEbxydS7_NS_14adl_serializerENS3_IhNS7_IhEEEEE16assert_invariantEb
	ldrb	w1, [sp]
Ltmp11:
	mov	x0, x20
	bl	__ZN8nlohmann10basic_jsonINSt3__13mapENS1_6vectorENS1_12basic_stringIcNS1_11char_traitsIcEENS1_9allocatorIcEEEEbxydS7_NS_14adl_serializerENS3_IhNS7_IhEEEEE10json_value7destroyENS_6detail7value_tE
Ltmp12:
; %bb.4:                                ; %_ZN8nlohmann10basic_jsonINSt3__13mapENS1_6vectorENS1_12basic_stringIcNS1_11char_traitsIcEENS1_9allocatorIcEEEEbxydS7_NS_14adl_serializerENS3_IhNS7_IhEEEEED1Ev.exit4
	mov	x0, x19
	ldp	x29, x30, [sp, #64]             ; 16-byte Folded Reload
	ldp	x20, x19, [sp, #48]             ; 16-byte Folded Reload
	ldp	x22, x21, [sp, #32]             ; 16-byte Folded Reload
	add	sp, sp, #80
	ret
LBB2_5:
Ltmp13:
	bl	___clang_call_terminate
LBB2_6:
Ltmp7:
	bl	___clang_call_terminate
LBB2_7:
Ltmp10:
	bl	___clang_call_terminate
Lfunc_end1:
	.cfi_endproc
	.section	__TEXT,__gcc_except_tab
	.p2align	2
GCC_except_table2:
Lexception1:
	.byte	255                             ; @LPStart Encoding = omit
	.byte	155                             ; @TType Encoding = indirect pcrel sdata4
	.uleb128 Lttbase1-Lttbaseref1
Lttbaseref1:
	.byte	1                               ; Call site Encoding = uleb128
	.uleb128 Lcst_end1-Lcst_begin1
Lcst_begin1:
	.uleb128 Ltmp3-Lfunc_begin1             ; >> Call Site 1 <<
	.uleb128 Ltmp4-Ltmp3                    ;   Call between Ltmp3 and Ltmp4
	.uleb128 Ltmp10-Lfunc_begin1            ;     jumps to Ltmp10
	.byte	1                               ;   On action: 1
	.uleb128 Ltmp5-Lfunc_begin1             ; >> Call Site 2 <<
	.uleb128 Ltmp6-Ltmp5                    ;   Call between Ltmp5 and Ltmp6
	.uleb128 Ltmp7-Lfunc_begin1             ;     jumps to Ltmp7
	.byte	1                               ;   On action: 1
	.uleb128 Ltmp8-Lfunc_begin1             ; >> Call Site 3 <<
	.uleb128 Ltmp9-Ltmp8                    ;   Call between Ltmp8 and Ltmp9
	.uleb128 Ltmp10-Lfunc_begin1            ;     jumps to Ltmp10
	.byte	1                               ;   On action: 1
	.uleb128 Ltmp11-Lfunc_begin1            ; >> Call Site 4 <<
	.uleb128 Ltmp12-Ltmp11                  ;   Call between Ltmp11 and Ltmp12
	.uleb128 Ltmp13-Lfunc_begin1            ;     jumps to Ltmp13
	.byte	1                               ;   On action: 1
Lcst_end1:
	.byte	1                               ; >> Action Record 1 <<
                                        ;   Catch TypeInfo 1
	.byte	0                               ;   No further actions
	.p2align	2
                                        ; >> Catch TypeInfos <<
	.long	0                               ; TypeInfo 1
Lttbase1:
	.p2align	2
                                        ; -- End function
	.section	__TEXT,__text,regular,pure_instructions
	.globl	__ZN17StateLatticeGraph11build_graphEv ; -- Begin function _ZN17StateLatticeGraph11build_graphEv
	.p2align	2
__ZN17StateLatticeGraph11build_graphEv: ; @_ZN17StateLatticeGraph11build_graphEv
Lfunc_begin2:
	.cfi_startproc
	.cfi_personality 155, ___gxx_personality_v0
	.cfi_lsda 16, Lexception2
; %bb.0:
	sub	sp, sp, #224
	stp	d9, d8, [sp, #112]              ; 16-byte Folded Spill
	stp	x28, x27, [sp, #128]            ; 16-byte Folded Spill
	stp	x26, x25, [sp, #144]            ; 16-byte Folded Spill
	stp	x24, x23, [sp, #160]            ; 16-byte Folded Spill
	stp	x22, x21, [sp, #176]            ; 16-byte Folded Spill
	stp	x20, x19, [sp, #192]            ; 16-byte Folded Spill
	stp	x29, x30, [sp, #208]            ; 16-byte Folded Spill
	add	x29, sp, #208
	.cfi_def_cfa w29, 16
	.cfi_offset w30, -8
	.cfi_offset w29, -16
	.cfi_offset w19, -24
	.cfi_offset w20, -32
	.cfi_offset w21, -40
	.cfi_offset w22, -48
	.cfi_offset w23, -56
	.cfi_offset w24, -64
	.cfi_offset w25, -72
	.cfi_offset w26, -80
	.cfi_offset w27, -88
	.cfi_offset w28, -96
	.cfi_offset b8, -104
	.cfi_offset b9, -112
	mov	x21, x0
	ldr	w8, [x0, #12]
	cmp	w8, #1
	str	x0, [sp, #32]                   ; 8-byte Folded Spill
	b.lt	LBB3_11
; %bb.1:                                ; %.lr.ph295.preheader
	mov	w26, #0
	add	x8, x21, #16
	str	x8, [sp, #24]                   ; 8-byte Folded Spill
	mov	x27, #6148914691236517205
	movk	x27, #5461, lsl #48
	mov	x28, #-6148914691236517206
	movk	x28, #43691
	b	LBB3_4
LBB3_2:                                 ;   in Loop: Header=BB3_4 Depth=1
	str	x19, [x9]
	str	w25, [x9, #8]
	add	x8, x9, #12
	str	x8, [x21, #24]
	mov	x19, x21
LBB3_3:                                 ; %_ZNSt3__16vectorI11LatticeNodeNS_9allocatorIS1_EEE9push_backEOS1_.exit
                                        ;   in Loop: Header=BB3_4 Depth=1
	add	w26, w26, #1
	ldr	w8, [x19, #12]
	cmp	w26, w8
	mov	x21, x19
	b.ge	LBB3_11
LBB3_4:                                 ; %.lr.ph295
                                        ; =>This Inner Loop Header: Depth=1
	ldp	w8, w9, [x21, #4]
	mul	w10, w9, w8
	sdiv	w19, w26, w10
	msub	w10, w10, w19, w26
	sdiv	w10, w10, w9
	madd	w8, w19, w8, w10
	msub	w25, w9, w8, w26
	bfi	x19, x10, #32, #32
	ldp	x9, x8, [x21, #24]
	cmp	x9, x8
	b.lo	LBB3_2
; %bb.5:                                ;   in Loop: Header=BB3_4 Depth=1
	ldr	x10, [sp, #24]                  ; 8-byte Folded Reload
	ldr	x21, [x10]
	sub	x22, x9, x21
	asr	x9, x22, #2
	mul	x20, x9, x28
	add	x9, x20, #1
	cmp	x9, x27
	b.hi	LBB3_76
; %bb.6:                                ; %_ZNKSt3__16vectorI11LatticeNodeNS_9allocatorIS1_EEE11__recommendEm.exit.i.i
                                        ;   in Loop: Header=BB3_4 Depth=1
	sub	x8, x8, x21
	asr	x8, x8, #2
	mul	x8, x8, x28
	lsl	x10, x8, #1
	cmp	x10, x9
	csel	x9, x9, x10, lo
	mov	x10, #-6148914691236517206
	movk	x10, #2730, lsl #48
	cmp	x8, x10
	csel	x8, x9, x27, lo
	cmp	x8, x27
	b.hi	LBB3_77
; %bb.7:                                ; %_ZNSt3__116allocator_traitsINS_9allocatorI11LatticeNodeEEE8allocateERS3_m.exit.i.i.i.i
                                        ;   in Loop: Header=BB3_4 Depth=1
	add	x8, x8, x8, lsl #1
	lsl	x23, x8, #2
	mov	x0, x23
	bl	__Znwm
	mov	x24, x0
	mov	w8, #12
	madd	x20, x20, x8, x0
	str	x19, [x20]
	str	w25, [x20, #8]
	sub	x25, x20, x22
	cmp	x22, #1
	b.lt	LBB3_9
; %bb.8:                                ;   in Loop: Header=BB3_4 Depth=1
	mov	x0, x25
	mov	x1, x21
	mov	x2, x22
	bl	_memcpy
LBB3_9:                                 ; %_ZNSt3__114__split_bufferI11LatticeNodeRNS_9allocatorIS1_EEE5clearEv.exit.i.i14.i.i
                                        ;   in Loop: Header=BB3_4 Depth=1
	add	x8, x24, x23
	add	x9, x20, #12
	ldr	x19, [sp, #32]                  ; 8-byte Folded Reload
	stp	x25, x9, [x19, #16]
	str	x8, [x19, #32]
	cbz	x21, LBB3_3
; %bb.10:                               ;   in Loop: Header=BB3_4 Depth=1
	mov	x0, x21
	bl	__ZdlPv
	b	LBB3_3
LBB3_11:                                ; %.preheader
	cmp	w8, #1
	b.lt	LBB3_72
; %bb.12:                               ; %.lr.ph291.preheader
	mov	w11, #0
	add	x9, x21, #64
	add	x8, x21, #40
	stp	x8, x9, [sp]                    ; 16-byte Folded Spill
	b	LBB3_16
LBB3_13:                                ; %_ZNSt3__113__vector_baseINS_6vectorIiNS_9allocatorIiEEEENS2_IS4_EEE5clearEv.exit.loopexit.i.i.i84
                                        ;   in Loop: Header=BB3_16 Depth=1
	ldr	x0, [sp, #88]
LBB3_14:                                ; %_ZNSt3__113__vector_baseINS_6vectorIiNS_9allocatorIiEEEENS2_IS4_EEE5clearEv.exit.i.i.i85
                                        ;   in Loop: Header=BB3_16 Depth=1
	str	x19, [sp, #96]
	bl	__ZdlPv
LBB3_15:                                ; %_ZNSt3__16vectorINS0_IiNS_9allocatorIiEEEENS1_IS3_EEED1Ev.exit86
                                        ;   in Loop: Header=BB3_16 Depth=1
	ldr	w11, [sp, #16]                  ; 4-byte Folded Reload
	add	w11, w11, #1
	ldr	w8, [x21, #12]
	cmp	w11, w8
	b.ge	LBB3_72
LBB3_16:                                ; %.lr.ph291
                                        ; =>This Loop Header: Depth=1
                                        ;     Child Loop BB3_20 Depth 2
                                        ;     Child Loop BB3_54 Depth 2
                                        ;     Child Loop BB3_58 Depth 2
                                        ;     Child Loop BB3_69 Depth 2
	ldp	w4, w8, [x21, #4]
	ldr	w3, [x21]
	mul	w9, w8, w4
	sdiv	w26, w11, w9
	mul	w9, w26, w4
	msub	w10, w9, w8, w11
	sdiv	w10, w10, w8
	add	w9, w9, w10
	msub	w2, w9, w8, w11
	mov	x1, x26
	str	x10, [sp, #24]                  ; 8-byte Folded Spill
	bfi	x1, x10, #32, #32
	add	x8, sp, #88
	ldr	x0, [sp, #8]                    ; 8-byte Folded Reload
	stp	w11, w2, [sp, #16]              ; 8-byte Folded Spill
	bl	__ZN9ActionSet11get_actionsE8Positioniii
	mov	x27, #0
	stp	xzr, xzr, [sp, #64]
	str	xzr, [sp, #80]
	ldp	x21, x8, [sp, #88]
	cmp	x21, x8
	b.hs	LBB3_35
; %bb.17:                               ; %.lr.ph.preheader
                                        ;   in Loop: Header=BB3_16 Depth=1
	mov	x27, #0
	b	LBB3_20
LBB3_18:                                ;   in Loop: Header=BB3_20 Depth=2
	str	w19, [x27]
	str	d8, [x27, #8]
	add	x27, x27, #16
	str	x27, [sp, #72]
LBB3_19:                                ; %_ZNSt3__16vectorI11LatticeEdgeNS_9allocatorIS1_EEE9push_backERKS1_.exit
                                        ;   in Loop: Header=BB3_20 Depth=2
	ldr	x8, [sp, #96]
	add	x21, x21, #24
	cmp	x21, x8
	b.hs	LBB3_35
LBB3_20:                                ; %.lr.ph
                                        ;   Parent Loop BB3_16 Depth=1
                                        ; =>  This Inner Loop Header: Depth=2
	ldr	x8, [x21]
	ldp	w20, w19, [x8]
	ldr	w25, [x8, #8]
	ldr	x8, [sp, #32]                   ; 8-byte Folded Reload
	ldp	w22, w28, [x8, #4]
	stp	xzr, xzr, [sp, #48]
	str	xzr, [sp, #40]
	ldp	x8, x9, [x21]
	subs	x24, x9, x8
	b.mi	LBB3_73
; %bb.21:                               ; %_ZNSt3__116allocator_traitsINS_9allocatorIiEEE8allocateERS2_m.exit.i.i.i
                                        ;   in Loop: Header=BB3_20 Depth=2
Ltmp14:
	mov	x0, x24
	bl	__Znwm
Ltmp15:
; %bb.22:                               ;   in Loop: Header=BB3_20 Depth=2
	mov	x23, x0
	asr	x8, x24, #2
	add	x8, x0, x8, lsl #2
	str	x0, [sp, #40]
	str	x8, [sp, #56]
	ldp	x1, x8, [x21]
	sub	x2, x8, x1
	cmp	x2, #1
	b.lt	LBB3_24
; %bb.23:                               ;   in Loop: Header=BB3_20 Depth=2
	mov	x0, x23
	bl	_memcpy
LBB3_24:                                ; %_ZNSt3__16vectorIiNS_9allocatorIiEEEC1ERKS3_.exit
                                        ;   in Loop: Header=BB3_20 Depth=2
	ldr	w8, [x23, #8]
	ldr	w9, [sp, #20]                   ; 4-byte Folded Reload
	cmp	w8, w9
	b.ne	LBB3_26
; %bb.25:                               ;   in Loop: Header=BB3_20 Depth=2
	ldp	s0, s1, [x23]
	sshll.2d	v0, v0, #0
	scvtf	d0, d0
	sshll.2d	v1, v1, #0
	scvtf	d1, d1
	bl	_hypot
	mov.16b	v8, v0
	b	LBB3_27
LBB3_26:                                ;   in Loop: Header=BB3_20 Depth=2
	mov	x8, #11544
	movk	x8, #21572, lsl #16
	movk	x8, #8699, lsl #32
	movk	x8, #16377, lsl #48
	fmov	d8, x8
LBB3_27:                                ; %_ZNSt3__16vectorIiNS_9allocatorIiEEED1Ev.exit
                                        ;   in Loop: Header=BB3_20 Depth=2
	add	w8, w20, w26
	ldr	x9, [sp, #24]                   ; 8-byte Folded Reload
	add	w9, w19, w9
	madd	w8, w22, w8, w9
	madd	w19, w8, w28, w25
	str	x23, [sp, #48]
	mov	x0, x23
	bl	__ZdlPv
	ldr	x8, [sp, #80]
	cmp	x27, x8
	b.ne	LBB3_18
; %bb.28:                               ;   in Loop: Header=BB3_20 Depth=2
	ldr	x23, [sp, #64]
	sub	x24, x27, x23
	asr	x22, x24, #4
	add	x8, x22, #1
	lsr	x9, x8, #60
	cbnz	x9, LBB3_74
; %bb.29:                               ; %_ZNKSt3__16vectorI11LatticeEdgeNS_9allocatorIS1_EEE11__recommendEm.exit.i.i
                                        ;   in Loop: Header=BB3_20 Depth=2
	asr	x9, x24, #3
	cmp	x9, x8
	csel	x8, x8, x9, lo
	mov	x9, #576460752303423487
	cmp	x22, x9
	mov	x9, #1152921504606846975
	csel	x20, x8, x9, lo
	lsr	x8, x20, #60
	cbnz	x8, LBB3_75
; %bb.30:                               ; %_ZNSt3__116allocator_traitsINS_9allocatorI11LatticeEdgeEEE8allocateERS3_m.exit.i.i.i.i
                                        ;   in Loop: Header=BB3_20 Depth=2
	lsl	x0, x20, #4
Ltmp17:
	bl	__Znwm
Ltmp18:
; %bb.31:                               ; %.noexc110
                                        ;   in Loop: Header=BB3_20 Depth=2
	mov	x25, x0
	add	x22, x0, x22, lsl #4
	str	w19, [x22]
	str	d8, [x22, #8]
	cmp	x24, #1
	b.lt	LBB3_33
; %bb.32:                               ;   in Loop: Header=BB3_20 Depth=2
	mov	x0, x25
	mov	x1, x23
	mov	x2, x24
	bl	_memcpy
LBB3_33:                                ; %_ZNSt3__114__split_bufferI11LatticeEdgeRNS_9allocatorIS1_EEE5clearEv.exit.i.i14.i.i
                                        ;   in Loop: Header=BB3_20 Depth=2
	add	x8, x25, x20, lsl #4
	add	x27, x22, #16
	stp	x25, x27, [sp, #64]
	str	x8, [sp, #80]
	cbz	x23, LBB3_19
; %bb.34:                               ;   in Loop: Header=BB3_20 Depth=2
	mov	x0, x23
	bl	__ZdlPv
	b	LBB3_19
LBB3_35:                                ; %._crit_edge
                                        ;   in Loop: Header=BB3_16 Depth=1
	ldr	x21, [sp, #32]                  ; 8-byte Folded Reload
	ldp	x22, x8, [x21, #48]
	cmp	x22, x8
	b.eq	LBB3_43
; %bb.36:                               ;   in Loop: Header=BB3_16 Depth=1
	stp	xzr, xzr, [x22]
	str	xzr, [x22, #16]
	ldp	x8, x9, [sp, #64]
	subs	x24, x9, x8
	b.eq	LBB3_42
; %bb.37:                               ;   in Loop: Header=BB3_16 Depth=1
	tbnz	x24, #63, LBB3_78
; %bb.38:                               ; %_ZNSt3__116allocator_traitsINS_9allocatorI11LatticeEdgeEEE8allocateERS3_m.exit.i.i.i.i.i.i9.i
                                        ;   in Loop: Header=BB3_16 Depth=1
Ltmp20:
	mov	x0, x24
	bl	__Znwm
Ltmp21:
; %bb.39:                               ;   in Loop: Header=BB3_16 Depth=1
	mov	x23, x0
	asr	x8, x24, #4
	stp	x0, x0, [x22]
	add	x8, x0, x8, lsl #4
	str	x8, [x22, #16]
	ldp	x1, x8, [sp, #64]
	sub	x24, x8, x1
	cmp	x24, #1
	b.lt	LBB3_41
; %bb.40:                               ;   in Loop: Header=BB3_16 Depth=1
	mov	x0, x23
	mov	x2, x24
	bl	_memcpy
	add	x23, x23, x24
LBB3_41:                                ; %_ZNSt3__16vectorI11LatticeEdgeNS_9allocatorIS1_EEE18__construct_at_endIPS1_EENS_9enable_ifIXsr27__is_cpp17_forward_iteratorIT_EE5valueEvE4typeES8_S8_m.exit.i.i.i.i.i10.i
                                        ;   in Loop: Header=BB3_16 Depth=1
	str	x23, [x22, #8]
LBB3_42:                                ; %_ZNSt3__16vectorINS0_I11LatticeEdgeNS_9allocatorIS1_EEEENS2_IS4_EEE22__construct_one_at_endIJRKS4_EEEvDpOT_.exit.i
                                        ;   in Loop: Header=BB3_16 Depth=1
	add	x8, x22, #24
	str	x8, [x21, #48]
	b	LBB3_63
LBB3_43:                                ;   in Loop: Header=BB3_16 Depth=1
	ldr	x8, [sp]                        ; 8-byte Folded Reload
	ldr	x21, [x8]
	sub	x8, x22, x21
	asr	x8, x8, #3
	mov	x9, #-6148914691236517206
	movk	x9, #43691
	mul	x28, x8, x9
	add	x8, x28, #1
	mov	x10, #-6148914691236517206
	movk	x10, #2730, lsl #48
	cmp	x8, x10
	b.hi	LBB3_79
; %bb.44:                               ; %_ZNKSt3__16vectorINS0_I11LatticeEdgeNS_9allocatorIS1_EEEENS2_IS4_EEE11__recommendEm.exit.i.i
                                        ;   in Loop: Header=BB3_16 Depth=1
	lsl	x9, x28, #1
	cmp	x9, x8
	csel	x8, x8, x9, lo
	mov	x9, #6148914691236517205
	movk	x9, #1365, lsl #48
	cmp	x28, x9
	csel	x19, x8, x10, lo
	cbz	x19, LBB3_48
; %bb.45:                               ;   in Loop: Header=BB3_16 Depth=1
	cmp	x19, x10
	b.hi	LBB3_80
; %bb.46:                               ; %_ZNSt3__116allocator_traitsINS_9allocatorINS_6vectorI11LatticeEdgeNS1_IS3_EEEEEEE8allocateERS6_m.exit.i.i.i.i
                                        ;   in Loop: Header=BB3_16 Depth=1
	add	x8, x19, x19, lsl #1
	lsl	x0, x8, #3
Ltmp26:
	bl	__Znwm
Ltmp27:
; %bb.47:                               ; %.noexc95
                                        ;   in Loop: Header=BB3_16 Depth=1
	mov	x20, x0
	b	LBB3_49
LBB3_48:                                ;   in Loop: Header=BB3_16 Depth=1
	mov	x20, #0
LBB3_49:                                ; %_ZNSt3__114__split_bufferINS_6vectorI11LatticeEdgeNS_9allocatorIS2_EEEERNS3_IS5_EEEC1EmmS7_.exit.i.i
                                        ;   in Loop: Header=BB3_16 Depth=1
	mov	w24, #24
	madd	x23, x28, x24, x20
	stp	xzr, xzr, [x23]
	str	xzr, [x23, #16]
	ldr	x26, [sp, #64]
	subs	x25, x27, x26
	b.eq	LBB3_53
; %bb.50:                               ;   in Loop: Header=BB3_16 Depth=1
	tbnz	x25, #63, LBB3_81
; %bb.51:                               ; %_ZNSt3__116allocator_traitsINS_9allocatorI11LatticeEdgeEEE8allocateERS3_m.exit.i.i.i.i.i.i.i
                                        ;   in Loop: Header=BB3_16 Depth=1
Ltmp31:
	mov	x0, x25
	bl	__Znwm
Ltmp32:
; %bb.52:                               ; %_ZNSt3__16vectorI11LatticeEdgeNS_9allocatorIS1_EEE18__construct_at_endIPS1_EENS_9enable_ifIXsr27__is_cpp17_forward_iteratorIT_EE5valueEvE4typeES8_S8_m.exit.i.i.i.i.i.i
                                        ;   in Loop: Header=BB3_16 Depth=1
	mov	x27, x0
	asr	x8, x25, #4
	mov	w24, #24
	madd	x28, x28, x24, x20
	str	x0, [x23]
	add	x8, x0, x8, lsl #4
	str	x8, [x28, #16]
	mov	x1, x26
	mov	x2, x25
	bl	_memcpy
	add	x8, x27, x25
	str	x8, [x28, #8]
LBB3_53:                                ; %_ZNSt3__116allocator_traitsINS_9allocatorINS_6vectorI11LatticeEdgeNS1_IS3_EEEEEEE9constructIS5_JRKS5_EvEEvRS6_PT_DpOT0_.exit.i.i
                                        ;   in Loop: Header=BB3_16 Depth=1
	madd	x8, x19, x24, x20
	add	x9, x23, #24
	cmp	x22, x21
	b.eq	LBB3_60
LBB3_54:                                ; %.lr.ph.i.i.i.i
                                        ;   Parent Loop BB3_16 Depth=1
                                        ; =>  This Inner Loop Header: Depth=2
	mov	x10, x23
	stp	xzr, xzr, [x23, #-16]
	ldr	x11, [x22, #-24]!
	str	x11, [x23, #-24]!
	ldr	x11, [x22, #8]
	stur	x11, [x10, #-16]
	ldr	x11, [x22, #16]
	stur	x11, [x10, #-8]
	stp	xzr, xzr, [x22]
	str	xzr, [x22, #16]
	cmp	x22, x21
	b.ne	LBB3_54
; %bb.55:                               ;   in Loop: Header=BB3_16 Depth=1
	ldr	x21, [sp, #32]                  ; 8-byte Folded Reload
	ldp	x22, x10, [x21, #40]
	stp	x23, x9, [x21, #40]
	str	x8, [x21, #56]
	cmp	x10, x22
	b.eq	LBB3_61
; %bb.56:                               ; %.lr.ph.i.i.i.i.i12.i.i.preheader
                                        ;   in Loop: Header=BB3_16 Depth=1
	mov	x19, x10
	b	LBB3_58
LBB3_57:                                ; %_ZNSt3__116allocator_traitsINS_9allocatorINS_6vectorI11LatticeEdgeNS1_IS3_EEEEEEE7destroyIS5_vEEvRS6_PT_.exit.i.i.i.i.i15.i.i
                                        ;   in Loop: Header=BB3_58 Depth=2
	mov	x10, x19
	cmp	x19, x22
	b.eq	LBB3_61
LBB3_58:                                ; %.lr.ph.i.i.i.i.i12.i.i
                                        ;   Parent Loop BB3_16 Depth=1
                                        ; =>  This Inner Loop Header: Depth=2
	ldr	x0, [x19, #-24]!
	cbz	x0, LBB3_57
; %bb.59:                               ;   in Loop: Header=BB3_58 Depth=2
	stur	x0, [x10, #-16]
	bl	__ZdlPv
	b	LBB3_57
LBB3_60:                                ; %.thread.i.i
                                        ;   in Loop: Header=BB3_16 Depth=1
	ldr	x21, [sp, #32]                  ; 8-byte Folded Reload
	stp	x23, x9, [x21, #40]
	str	x8, [x21, #56]
LBB3_61:                                ; %_ZNSt3__114__split_bufferINS_6vectorI11LatticeEdgeNS_9allocatorIS2_EEEERNS3_IS5_EEE5clearEv.exit.i.i17.i.i
                                        ;   in Loop: Header=BB3_16 Depth=1
	cbz	x22, LBB3_63
; %bb.62:                               ;   in Loop: Header=BB3_16 Depth=1
	mov	x0, x22
	bl	__ZdlPv
LBB3_63:                                ; %_ZNSt3__16vectorINS0_I11LatticeEdgeNS_9allocatorIS1_EEEENS2_IS4_EEE9push_backERKS4_.exit
                                        ;   in Loop: Header=BB3_16 Depth=1
	ldr	x0, [sp, #64]
	cbz	x0, LBB3_65
; %bb.64:                               ;   in Loop: Header=BB3_16 Depth=1
	bl	__ZdlPv
LBB3_65:                                ; %_ZNSt3__16vectorI11LatticeEdgeNS_9allocatorIS1_EEED1Ev.exit112
                                        ;   in Loop: Header=BB3_16 Depth=1
	ldr	x19, [sp, #88]
	cbz	x19, LBB3_15
; %bb.66:                               ;   in Loop: Header=BB3_16 Depth=1
	ldr	x8, [sp, #96]
	cmp	x8, x19
	b.eq	LBB3_71
; %bb.67:                               ; %.lr.ph.i.i.i.i.i79.preheader
                                        ;   in Loop: Header=BB3_16 Depth=1
	mov	x20, x8
	b	LBB3_69
LBB3_68:                                ; %_ZNSt3__116allocator_traitsINS_9allocatorINS_6vectorIiNS1_IiEEEEEEE7destroyIS4_vEEvRS5_PT_.exit.i.i.i.i.i81
                                        ;   in Loop: Header=BB3_69 Depth=2
	mov	x8, x20
	cmp	x20, x19
	b.eq	LBB3_13
LBB3_69:                                ; %.lr.ph.i.i.i.i.i79
                                        ;   Parent Loop BB3_16 Depth=1
                                        ; =>  This Inner Loop Header: Depth=2
	ldr	x0, [x20, #-24]!
	cbz	x0, LBB3_68
; %bb.70:                               ;   in Loop: Header=BB3_69 Depth=2
	stur	x0, [x8, #-16]
	bl	__ZdlPv
	b	LBB3_68
LBB3_71:                                ;   in Loop: Header=BB3_16 Depth=1
	mov	x0, x19
	b	LBB3_14
LBB3_72:                                ; %._crit_edge292
	ldp	x29, x30, [sp, #208]            ; 16-byte Folded Reload
	ldp	x20, x19, [sp, #192]            ; 16-byte Folded Reload
	ldp	x22, x21, [sp, #176]            ; 16-byte Folded Reload
	ldp	x24, x23, [sp, #160]            ; 16-byte Folded Reload
	ldp	x26, x25, [sp, #144]            ; 16-byte Folded Reload
	ldp	x28, x27, [sp, #128]            ; 16-byte Folded Reload
	ldp	d9, d8, [sp, #112]              ; 16-byte Folded Reload
	add	sp, sp, #224
	ret
LBB3_73:
Ltmp45:
	add	x0, sp, #40
	bl	__ZNKSt3__113__vector_baseIiNS_9allocatorIiEEE20__throw_length_errorEv
Ltmp46:
	b	LBB3_82
LBB3_74:
Ltmp42:
	add	x0, sp, #64
	bl	__ZNKSt3__113__vector_baseI11LatticeEdgeNS_9allocatorIS1_EEE20__throw_length_errorEv
Ltmp43:
	b	LBB3_82
LBB3_75:
Ltmp40:
	bl	__ZNSt3__1L20__throw_length_errorEPKc
Ltmp41:
	b	LBB3_82
LBB3_76:
	ldr	x0, [sp, #24]                   ; 8-byte Folded Reload
	bl	__ZNKSt3__113__vector_baseI11LatticeNodeNS_9allocatorIS1_EEE20__throw_length_errorEv
LBB3_77:
	bl	__ZNSt3__1L20__throw_length_errorEPKc
LBB3_78:
Ltmp23:
	mov	x0, x22
	bl	__ZNKSt3__113__vector_baseI11LatticeEdgeNS_9allocatorIS1_EEE20__throw_length_errorEv
Ltmp24:
	b	LBB3_82
LBB3_79:
Ltmp37:
	ldr	x0, [sp]                        ; 8-byte Folded Reload
	bl	__ZNKSt3__113__vector_baseINS_6vectorI11LatticeEdgeNS_9allocatorIS2_EEEENS3_IS5_EEE20__throw_length_errorEv
Ltmp38:
	b	LBB3_82
LBB3_80:
Ltmp29:
	bl	__ZNSt3__1L20__throw_length_errorEPKc
Ltmp30:
	b	LBB3_82
LBB3_81:
Ltmp34:
	mov	x0, x23
	bl	__ZNKSt3__113__vector_baseI11LatticeEdgeNS_9allocatorIS1_EEE20__throw_length_errorEv
Ltmp35:
LBB3_82:                                ; %.noexc.i.i.i.i.i8.i
	brk	#0x1
LBB3_83:                                ; %.loopexit.split-lp169
Ltmp36:
	b	LBB3_85
LBB3_84:                                ; %.loopexit168
Ltmp33:
LBB3_85:
	mov	x24, x0
	ldr	x0, [x23]
	cbz	x0, LBB3_87
; %bb.86:
	mov	w8, #24
	madd	x8, x28, x8, x20
	str	x0, [x8, #8]
	bl	__ZdlPv
LBB3_87:                                ; %_ZNSt3__114__split_bufferINS_6vectorI11LatticeEdgeNS_9allocatorIS2_EEEERNS3_IS5_EEE5clearEv.exit.i.i.thread.i.i
	mov	x0, x20
	bl	__ZdlPv
	ldr	x0, [sp, #64]
	cbz	x0, LBB3_99
	b	LBB3_104
LBB3_88:                                ; %.loopexit163
Ltmp28:
	b	LBB3_103
LBB3_89:                                ; %.loopexit.split-lp159
Ltmp25:
	b	LBB3_91
LBB3_90:                                ; %.loopexit158
Ltmp22:
LBB3_91:
	mov	x24, x0
	ldr	x0, [x22]
	cbz	x0, LBB3_93
; %bb.92:
	str	x0, [x22, #8]
	bl	__ZdlPv
LBB3_93:                                ; %.body.i.i
	ldr	x8, [sp, #32]                   ; 8-byte Folded Reload
	str	x22, [x8, #48]
	ldr	x0, [sp, #64]
	cbz	x0, LBB3_99
	b	LBB3_104
LBB3_94:                                ; %.loopexit.split-lp164
Ltmp39:
	b	LBB3_103
LBB3_95:                                ; %.loopexit153
Ltmp19:
	b	LBB3_103
LBB3_96:                                ; %.loopexit.split-lp154
Ltmp44:
	b	LBB3_103
LBB3_97:
Ltmp47:
	mov	x24, x0
	ldr	x0, [sp, #40]
	cbnz	x0, LBB3_101
; %bb.98:                               ; %.body97
	ldr	x0, [sp, #64]
	cbnz	x0, LBB3_104
LBB3_99:                                ; %_ZNSt3__16vectorI11LatticeEdgeNS_9allocatorIS1_EEED1Ev.exit
	ldr	x19, [sp, #88]
	cbnz	x19, LBB3_105
LBB3_100:                               ; %_ZNSt3__16vectorINS0_IiNS_9allocatorIiEEEENS1_IS3_EEED1Ev.exit
	mov	x0, x24
	bl	__Unwind_Resume
LBB3_101:
	str	x0, [sp, #48]
	bl	__ZdlPv
	ldr	x0, [sp, #64]
	cbz	x0, LBB3_99
	b	LBB3_104
LBB3_102:                               ; %.thread
Ltmp16:
LBB3_103:                               ; %.body97
	mov	x24, x0
	ldr	x0, [sp, #64]
	cbz	x0, LBB3_99
LBB3_104:
	str	x0, [sp, #72]
	bl	__ZdlPv
	ldr	x19, [sp, #88]
	cbz	x19, LBB3_100
LBB3_105:
	ldr	x8, [sp, #96]
	mov	x0, x19
	cmp	x8, x19
	b.eq	LBB3_111
; %bb.106:                              ; %.lr.ph.i.i.i.i.i.preheader
	mov	x21, x8
	b	LBB3_108
LBB3_107:                               ; %_ZNSt3__116allocator_traitsINS_9allocatorINS_6vectorIiNS1_IiEEEEEEE7destroyIS4_vEEvRS5_PT_.exit.i.i.i.i.i
                                        ;   in Loop: Header=BB3_108 Depth=1
	mov	x8, x21
	cmp	x21, x19
	b.eq	LBB3_110
LBB3_108:                               ; %.lr.ph.i.i.i.i.i
                                        ; =>This Inner Loop Header: Depth=1
	ldr	x0, [x21, #-24]!
	cbz	x0, LBB3_107
; %bb.109:                              ;   in Loop: Header=BB3_108 Depth=1
	stur	x0, [x8, #-16]
	bl	__ZdlPv
	b	LBB3_107
LBB3_110:                               ; %_ZNSt3__113__vector_baseINS_6vectorIiNS_9allocatorIiEEEENS2_IS4_EEE5clearEv.exit.loopexit.i.i.i
	ldr	x0, [sp, #88]
LBB3_111:                               ; %_ZNSt3__113__vector_baseINS_6vectorIiNS_9allocatorIiEEEENS2_IS4_EEE5clearEv.exit.i.i.i
	str	x19, [sp, #96]
	bl	__ZdlPv
	mov	x0, x24
	bl	__Unwind_Resume
Lfunc_end2:
	.cfi_endproc
	.section	__TEXT,__gcc_except_tab
	.p2align	2
GCC_except_table3:
Lexception2:
	.byte	255                             ; @LPStart Encoding = omit
	.byte	255                             ; @TType Encoding = omit
	.byte	1                               ; Call site Encoding = uleb128
	.uleb128 Lcst_end2-Lcst_begin2
Lcst_begin2:
	.uleb128 Lfunc_begin2-Lfunc_begin2      ; >> Call Site 1 <<
	.uleb128 Ltmp14-Lfunc_begin2            ;   Call between Lfunc_begin2 and Ltmp14
	.byte	0                               ;     has no landing pad
	.byte	0                               ;   On action: cleanup
	.uleb128 Ltmp14-Lfunc_begin2            ; >> Call Site 2 <<
	.uleb128 Ltmp15-Ltmp14                  ;   Call between Ltmp14 and Ltmp15
	.uleb128 Ltmp16-Lfunc_begin2            ;     jumps to Ltmp16
	.byte	0                               ;   On action: cleanup
	.uleb128 Ltmp15-Lfunc_begin2            ; >> Call Site 3 <<
	.uleb128 Ltmp17-Ltmp15                  ;   Call between Ltmp15 and Ltmp17
	.byte	0                               ;     has no landing pad
	.byte	0                               ;   On action: cleanup
	.uleb128 Ltmp17-Lfunc_begin2            ; >> Call Site 4 <<
	.uleb128 Ltmp18-Ltmp17                  ;   Call between Ltmp17 and Ltmp18
	.uleb128 Ltmp19-Lfunc_begin2            ;     jumps to Ltmp19
	.byte	0                               ;   On action: cleanup
	.uleb128 Ltmp18-Lfunc_begin2            ; >> Call Site 5 <<
	.uleb128 Ltmp20-Ltmp18                  ;   Call between Ltmp18 and Ltmp20
	.byte	0                               ;     has no landing pad
	.byte	0                               ;   On action: cleanup
	.uleb128 Ltmp20-Lfunc_begin2            ; >> Call Site 6 <<
	.uleb128 Ltmp21-Ltmp20                  ;   Call between Ltmp20 and Ltmp21
	.uleb128 Ltmp22-Lfunc_begin2            ;     jumps to Ltmp22
	.byte	0                               ;   On action: cleanup
	.uleb128 Ltmp21-Lfunc_begin2            ; >> Call Site 7 <<
	.uleb128 Ltmp26-Ltmp21                  ;   Call between Ltmp21 and Ltmp26
	.byte	0                               ;     has no landing pad
	.byte	0                               ;   On action: cleanup
	.uleb128 Ltmp26-Lfunc_begin2            ; >> Call Site 8 <<
	.uleb128 Ltmp27-Ltmp26                  ;   Call between Ltmp26 and Ltmp27
	.uleb128 Ltmp28-Lfunc_begin2            ;     jumps to Ltmp28
	.byte	0                               ;   On action: cleanup
	.uleb128 Ltmp31-Lfunc_begin2            ; >> Call Site 9 <<
	.uleb128 Ltmp32-Ltmp31                  ;   Call between Ltmp31 and Ltmp32
	.uleb128 Ltmp33-Lfunc_begin2            ;     jumps to Ltmp33
	.byte	0                               ;   On action: cleanup
	.uleb128 Ltmp32-Lfunc_begin2            ; >> Call Site 10 <<
	.uleb128 Ltmp45-Ltmp32                  ;   Call between Ltmp32 and Ltmp45
	.byte	0                               ;     has no landing pad
	.byte	0                               ;   On action: cleanup
	.uleb128 Ltmp45-Lfunc_begin2            ; >> Call Site 11 <<
	.uleb128 Ltmp46-Ltmp45                  ;   Call between Ltmp45 and Ltmp46
	.uleb128 Ltmp47-Lfunc_begin2            ;     jumps to Ltmp47
	.byte	0                               ;   On action: cleanup
	.uleb128 Ltmp42-Lfunc_begin2            ; >> Call Site 12 <<
	.uleb128 Ltmp41-Ltmp42                  ;   Call between Ltmp42 and Ltmp41
	.uleb128 Ltmp44-Lfunc_begin2            ;     jumps to Ltmp44
	.byte	0                               ;   On action: cleanup
	.uleb128 Ltmp41-Lfunc_begin2            ; >> Call Site 13 <<
	.uleb128 Ltmp23-Ltmp41                  ;   Call between Ltmp41 and Ltmp23
	.byte	0                               ;     has no landing pad
	.byte	0                               ;   On action: cleanup
	.uleb128 Ltmp23-Lfunc_begin2            ; >> Call Site 14 <<
	.uleb128 Ltmp24-Ltmp23                  ;   Call between Ltmp23 and Ltmp24
	.uleb128 Ltmp25-Lfunc_begin2            ;     jumps to Ltmp25
	.byte	0                               ;   On action: cleanup
	.uleb128 Ltmp37-Lfunc_begin2            ; >> Call Site 15 <<
	.uleb128 Ltmp30-Ltmp37                  ;   Call between Ltmp37 and Ltmp30
	.uleb128 Ltmp39-Lfunc_begin2            ;     jumps to Ltmp39
	.byte	0                               ;   On action: cleanup
	.uleb128 Ltmp34-Lfunc_begin2            ; >> Call Site 16 <<
	.uleb128 Ltmp35-Ltmp34                  ;   Call between Ltmp34 and Ltmp35
	.uleb128 Ltmp36-Lfunc_begin2            ;     jumps to Ltmp36
	.byte	0                               ;   On action: cleanup
	.uleb128 Ltmp35-Lfunc_begin2            ; >> Call Site 17 <<
	.uleb128 Lfunc_end2-Ltmp35              ;   Call between Ltmp35 and Lfunc_end2
	.byte	0                               ;     has no landing pad
	.byte	0                               ;   On action: cleanup
Lcst_end2:
	.p2align	2
                                        ; -- End function
	.section	__TEXT,__text,regular,pure_instructions
	.globl	__ZN9ActionSetD1Ev              ; -- Begin function _ZN9ActionSetD1Ev
	.weak_def_can_be_hidden	__ZN9ActionSetD1Ev
	.p2align	2
__ZN9ActionSetD1Ev:                     ; @_ZN9ActionSetD1Ev
Lfunc_begin3:
	.cfi_startproc
	.cfi_personality 155, ___gxx_personality_v0
	.cfi_lsda 16, Lexception3
; %bb.0:
	stp	x20, x19, [sp, #-32]!           ; 16-byte Folded Spill
	stp	x29, x30, [sp, #16]             ; 16-byte Folded Spill
	add	x29, sp, #16
	.cfi_def_cfa w29, 16
	.cfi_offset w30, -8
	.cfi_offset w29, -16
	.cfi_offset w19, -24
	.cfi_offset w20, -32
	mov	x19, x0
	add	x0, x0, #16
	mov	w1, #0
	bl	__ZNK8nlohmann10basic_jsonINSt3__13mapENS1_6vectorENS1_12basic_stringIcNS1_11char_traitsIcEENS1_9allocatorIcEEEEbxydS7_NS_14adl_serializerENS3_IhNS7_IhEEEEE16assert_invariantEb
	add	x0, x19, #24
	ldrb	w1, [x19, #16]
Ltmp48:
	bl	__ZN8nlohmann10basic_jsonINSt3__13mapENS1_6vectorENS1_12basic_stringIcNS1_11char_traitsIcEENS1_9allocatorIcEEEEbxydS7_NS_14adl_serializerENS3_IhNS7_IhEEEEE10json_value7destroyENS_6detail7value_tE
Ltmp49:
; %bb.1:                                ; %_ZN8nlohmann10basic_jsonINSt3__13mapENS1_6vectorENS1_12basic_stringIcNS1_11char_traitsIcEENS1_9allocatorIcEEEEbxydS7_NS_14adl_serializerENS3_IhNS7_IhEEEEED1Ev.exit.i
	mov	x0, x19
	mov	w1, #0
	bl	__ZNK8nlohmann10basic_jsonINSt3__13mapENS1_6vectorENS1_12basic_stringIcNS1_11char_traitsIcEENS1_9allocatorIcEEEEbxydS7_NS_14adl_serializerENS3_IhNS7_IhEEEEE16assert_invariantEb
	mov	x0, x19
	ldrb	w1, [x0], #8
Ltmp51:
	bl	__ZN8nlohmann10basic_jsonINSt3__13mapENS1_6vectorENS1_12basic_stringIcNS1_11char_traitsIcEENS1_9allocatorIcEEEEbxydS7_NS_14adl_serializerENS3_IhNS7_IhEEEEE10json_value7destroyENS_6detail7value_tE
Ltmp52:
; %bb.2:                                ; %_ZN9ActionSetD2Ev.exit
	mov	x0, x19
	ldp	x29, x30, [sp, #16]             ; 16-byte Folded Reload
	ldp	x20, x19, [sp], #32             ; 16-byte Folded Reload
	ret
LBB4_3:
Ltmp53:
	bl	___clang_call_terminate
LBB4_4:
Ltmp50:
	bl	___clang_call_terminate
Lfunc_end3:
	.cfi_endproc
	.section	__TEXT,__gcc_except_tab
	.p2align	2
GCC_except_table4:
Lexception3:
	.byte	255                             ; @LPStart Encoding = omit
	.byte	155                             ; @TType Encoding = indirect pcrel sdata4
	.uleb128 Lttbase2-Lttbaseref2
Lttbaseref2:
	.byte	1                               ; Call site Encoding = uleb128
	.uleb128 Lcst_end3-Lcst_begin3
Lcst_begin3:
	.uleb128 Ltmp48-Lfunc_begin3            ; >> Call Site 1 <<
	.uleb128 Ltmp49-Ltmp48                  ;   Call between Ltmp48 and Ltmp49
	.uleb128 Ltmp50-Lfunc_begin3            ;     jumps to Ltmp50
	.byte	1                               ;   On action: 1
	.uleb128 Ltmp51-Lfunc_begin3            ; >> Call Site 2 <<
	.uleb128 Ltmp52-Ltmp51                  ;   Call between Ltmp51 and Ltmp52
	.uleb128 Ltmp53-Lfunc_begin3            ;     jumps to Ltmp53
	.byte	1                               ;   On action: 1
Lcst_end3:
	.byte	1                               ; >> Action Record 1 <<
                                        ;   Catch TypeInfo 1
	.byte	0                               ;   No further actions
	.p2align	2
                                        ; >> Catch TypeInfos <<
	.long	0                               ; TypeInfo 1
Lttbase2:
	.p2align	2
                                        ; -- End function
	.section	__TEXT,__text,regular,pure_instructions
	.p2align	2                               ; -- Begin function _ZNSt3__16vectorINS0_I11LatticeEdgeNS_9allocatorIS1_EEEENS2_IS4_EEED1Ev
__ZNSt3__16vectorINS0_I11LatticeEdgeNS_9allocatorIS1_EEEENS2_IS4_EEED1Ev: ; @_ZNSt3__16vectorINS0_I11LatticeEdgeNS_9allocatorIS1_EEEENS2_IS4_EEED1Ev
	.cfi_startproc
; %bb.0:
	stp	x22, x21, [sp, #-48]!           ; 16-byte Folded Spill
	stp	x20, x19, [sp, #16]             ; 16-byte Folded Spill
	stp	x29, x30, [sp, #32]             ; 16-byte Folded Spill
	add	x29, sp, #32
	.cfi_def_cfa w29, 16
	.cfi_offset w30, -8
	.cfi_offset w29, -16
	.cfi_offset w19, -24
	.cfi_offset w20, -32
	.cfi_offset w21, -40
	.cfi_offset w22, -48
	mov	x19, x0
	ldr	x20, [x0]
	cbz	x20, LBB5_9
; %bb.1:
	ldr	x8, [x19, #8]
	cmp	x8, x20
	b.eq	LBB5_7
; %bb.2:                                ; %.lr.ph.i.i.i.i.preheader
	mov	x21, x8
	b	LBB5_4
LBB5_3:                                 ; %_ZNSt3__116allocator_traitsINS_9allocatorINS_6vectorI11LatticeEdgeNS1_IS3_EEEEEEE7destroyIS5_vEEvRS6_PT_.exit.i.i.i.i
                                        ;   in Loop: Header=BB5_4 Depth=1
	mov	x8, x21
	cmp	x21, x20
	b.eq	LBB5_6
LBB5_4:                                 ; %.lr.ph.i.i.i.i
                                        ; =>This Inner Loop Header: Depth=1
	ldr	x0, [x21, #-24]!
	cbz	x0, LBB5_3
; %bb.5:                                ;   in Loop: Header=BB5_4 Depth=1
	stur	x0, [x8, #-16]
	bl	__ZdlPv
	b	LBB5_3
LBB5_6:                                 ; %_ZNSt3__113__vector_baseINS_6vectorI11LatticeEdgeNS_9allocatorIS2_EEEENS3_IS5_EEE5clearEv.exit.loopexit.i.i
	ldr	x0, [x19]
	b	LBB5_8
LBB5_7:
	mov	x0, x20
LBB5_8:                                 ; %_ZNSt3__113__vector_baseINS_6vectorI11LatticeEdgeNS_9allocatorIS2_EEEENS3_IS5_EEE5clearEv.exit.i.i
	str	x20, [x19, #8]
	bl	__ZdlPv
LBB5_9:                                 ; %_ZNSt3__16vectorINS0_I11LatticeEdgeNS_9allocatorIS1_EEEENS2_IS4_EEED2Ev.exit
	mov	x0, x19
	ldp	x29, x30, [sp, #32]             ; 16-byte Folded Reload
	ldp	x20, x19, [sp, #16]             ; 16-byte Folded Reload
	ldp	x22, x21, [sp], #48             ; 16-byte Folded Reload
	ret
	.cfi_endproc
                                        ; -- End function
	.private_extern	___clang_call_terminate ; -- Begin function __clang_call_terminate
	.globl	___clang_call_terminate
	.weak_def_can_be_hidden	___clang_call_terminate
	.p2align	2
___clang_call_terminate:                ; @__clang_call_terminate
; %bb.0:
	stp	x29, x30, [sp, #-16]!           ; 16-byte Folded Spill
	bl	___cxa_begin_catch
	bl	__ZSt9terminatev
                                        ; -- End function
	.p2align	2                               ; -- Begin function _ZNSt3__16vectorI11LatticeNodeNS_9allocatorIS1_EEED1Ev
__ZNSt3__16vectorI11LatticeNodeNS_9allocatorIS1_EEED1Ev: ; @_ZNSt3__16vectorI11LatticeNodeNS_9allocatorIS1_EEED1Ev
	.cfi_startproc
; %bb.0:
	stp	x20, x19, [sp, #-32]!           ; 16-byte Folded Spill
	stp	x29, x30, [sp, #16]             ; 16-byte Folded Spill
	add	x29, sp, #16
	.cfi_def_cfa w29, 16
	.cfi_offset w30, -8
	.cfi_offset w29, -16
	.cfi_offset w19, -24
	.cfi_offset w20, -32
	mov	x19, x0
	ldr	x0, [x0]
	cbz	x0, LBB7_2
; %bb.1:
	str	x0, [x19, #8]
	bl	__ZdlPv
LBB7_2:                                 ; %_ZNSt3__16vectorI11LatticeNodeNS_9allocatorIS1_EEED2Ev.exit
	mov	x0, x19
	ldp	x29, x30, [sp, #16]             ; 16-byte Folded Reload
	ldp	x20, x19, [sp], #32             ; 16-byte Folded Reload
	ret
	.cfi_endproc
                                        ; -- End function
	.globl	__ZN17StateLatticeGraphC1EiiRK9ActionSet ; -- Begin function _ZN17StateLatticeGraphC1EiiRK9ActionSet
	.p2align	2
__ZN17StateLatticeGraphC1EiiRK9ActionSet: ; @_ZN17StateLatticeGraphC1EiiRK9ActionSet
	.cfi_startproc
; %bb.0:
	b	__ZN17StateLatticeGraphC2EiiRK9ActionSet
	.cfi_endproc
                                        ; -- End function
	.globl	__ZNK17StateLatticeGraph14index2positionEi ; -- Begin function _ZNK17StateLatticeGraph14index2positionEi
	.p2align	2
__ZNK17StateLatticeGraph14index2positionEi: ; @_ZNK17StateLatticeGraph14index2positionEi
	.cfi_startproc
; %bb.0:
	ldp	w8, w9, [x0, #4]
	mul	w10, w9, w8
	sdiv	w0, w1, w10
	mul	w8, w0, w8
	msub	w10, w8, w9, w1
	sdiv	w10, w10, w9
	add	w8, w8, w10
	msub	w1, w8, w9, w1
	bfi	x0, x10, #32, #32
	ret
	.cfi_endproc
                                        ; -- End function
	.globl	__ZNK17StateLatticeGraph14position2indexE8Positioni ; -- Begin function _ZNK17StateLatticeGraph14position2indexE8Positioni
	.p2align	2
__ZNK17StateLatticeGraph14position2indexE8Positioni: ; @_ZNK17StateLatticeGraph14position2indexE8Positioni
	.cfi_startproc
; %bb.0:
	lsr	x8, x1, #32
	ldp	w9, w10, [x0, #4]
	madd	w8, w9, w1, w8
	madd	w0, w8, w10, w2
	ret
	.cfi_endproc
                                        ; -- End function
	.globl	__ZN9ActionSet11get_actionsE8Positioniii ; -- Begin function _ZN9ActionSet11get_actionsE8Positioniii
	.p2align	2
__ZN9ActionSet11get_actionsE8Positioniii: ; @_ZN9ActionSet11get_actionsE8Positioniii
Lfunc_begin4:
	.cfi_startproc
	.cfi_personality 155, ___gxx_personality_v0
	.cfi_lsda 16, Lexception4
; %bb.0:
	sub	sp, sp, #112
	stp	x24, x23, [sp, #48]             ; 16-byte Folded Spill
	stp	x22, x21, [sp, #64]             ; 16-byte Folded Spill
	stp	x20, x19, [sp, #80]             ; 16-byte Folded Spill
	stp	x29, x30, [sp, #96]             ; 16-byte Folded Spill
	add	x29, sp, #96
	.cfi_def_cfa w29, 16
	.cfi_offset w30, -8
	.cfi_offset w29, -16
	.cfi_offset w19, -24
	.cfi_offset w20, -32
	.cfi_offset w21, -40
	.cfi_offset w22, -48
	.cfi_offset w23, -56
	.cfi_offset w24, -64
	mov	x19, x4
	mov	x20, x3
	mov	x21, x1
	mov	x23, x0
	mov	x22, x8
	mov	x8, sp
	mov	x0, x2
	bl	__ZNSt3__19to_stringEi
Ltmp54:
	mov	x1, sp
	mov	x0, x23
	bl	__ZN8nlohmann10basic_jsonINSt3__13mapENS1_6vectorENS1_12basic_stringIcNS1_11char_traitsIcEENS1_9allocatorIcEEEEbxydS7_NS_14adl_serializerENS3_IhNS7_IhEEEEEixERKS9_
Ltmp55:
; %bb.1:
	stp	xzr, xzr, [sp, #24]
	str	xzr, [sp, #40]
Ltmp57:
	add	x1, sp, #24
	bl	__ZN8nlohmann6detail9from_jsonINS_10basic_jsonINSt3__13mapENS3_6vectorENS3_12basic_stringIcNS3_11char_traitsIcEENS3_9allocatorIcEEEEbxydS9_NS_14adl_serializerENS5_IhNS9_IhEEEEEENS5_INS5_IiNS9_IiEEEENS9_ISH_EEEELi0EEEDTcmcmcl20from_json_array_implfp_fp0_tlNS0_12priority_tagILj3EEEEEcldtfp_3getINT0_10value_typeEEEcvv_EERKT_RSM_
Ltmp58:
; %bb.2:                                ; %_ZNK8nlohmann10basic_jsonINSt3__13mapENS1_6vectorENS1_12basic_stringIcNS1_11char_traitsIcEENS1_9allocatorIcEEEEbxydS7_NS_14adl_serializerENS3_IhNS7_IhEEEEE3getINS3_INS3_IiNS7_IiEEEENS7_ISG_EEEESI_EEDTcldtclL_ZNS1_7declvalIRKSD_EEDTcl9__declvalIT_ELi0EEEvEE8get_implIT0_EtlNS_6detail12priority_tagILj4EEEEEEv.exit
	ldrsb	w8, [sp, #23]
	tbz	w8, #31, LBB11_4
; %bb.3:
	ldr	x0, [sp]
	bl	__ZdlPv
LBB11_4:                                ; %_ZNSt3__112basic_stringIcNS_11char_traitsIcEENS_9allocatorIcEEED1Ev.exit
Ltmp60:
	add	x1, sp, #24
	mov	x8, x22
	mov	x2, x21
	mov	x3, x20
	mov	x4, x19
	bl	__ZN9ActionSet12action_cleanERKNSt3__16vectorINS1_IiNS0_9allocatorIiEEEENS2_IS4_EEEE8Positionii
Ltmp61:
; %bb.5:
	ldr	x19, [sp, #24]
	cbz	x19, LBB11_14
; %bb.6:
	ldr	x8, [sp, #32]
	cmp	x8, x19
	b.eq	LBB11_12
; %bb.7:                                ; %.lr.ph.i.i.i.i.i.preheader
	mov	x20, x8
	b	LBB11_9
LBB11_8:                                ; %_ZNSt3__116allocator_traitsINS_9allocatorINS_6vectorIiNS1_IiEEEEEEE7destroyIS4_vEEvRS5_PT_.exit.i.i.i.i.i
                                        ;   in Loop: Header=BB11_9 Depth=1
	mov	x8, x20
	cmp	x20, x19
	b.eq	LBB11_11
LBB11_9:                                ; %.lr.ph.i.i.i.i.i
                                        ; =>This Inner Loop Header: Depth=1
	ldr	x0, [x20, #-24]!
	cbz	x0, LBB11_8
; %bb.10:                               ;   in Loop: Header=BB11_9 Depth=1
	stur	x0, [x8, #-16]
	bl	__ZdlPv
	b	LBB11_8
LBB11_11:                               ; %_ZNSt3__113__vector_baseINS_6vectorIiNS_9allocatorIiEEEENS2_IS4_EEE5clearEv.exit.loopexit.i.i.i
	ldr	x0, [sp, #24]
	b	LBB11_13
LBB11_12:
	mov	x0, x19
LBB11_13:                               ; %_ZNSt3__113__vector_baseINS_6vectorIiNS_9allocatorIiEEEENS2_IS4_EEE5clearEv.exit.i.i.i
	str	x19, [sp, #32]
	bl	__ZdlPv
LBB11_14:                               ; %_ZNSt3__16vectorINS0_IiNS_9allocatorIiEEEENS1_IS3_EEED1Ev.exit
	ldp	x29, x30, [sp, #96]             ; 16-byte Folded Reload
	ldp	x20, x19, [sp, #80]             ; 16-byte Folded Reload
	ldp	x22, x21, [sp, #64]             ; 16-byte Folded Reload
	ldp	x24, x23, [sp, #48]             ; 16-byte Folded Reload
	add	sp, sp, #112
	ret
LBB11_15:
Ltmp62:
	mov	x19, x0
	ldr	x0, [sp, #24]
	cbz	x0, LBB11_22
; %bb.16:                               ; %codeRepl
	add	x1, sp, #24
	bl	__ZN9ActionSet11get_actionsE8Positioniii.cold.1
	b	LBB11_22
LBB11_17:
Ltmp59:
	mov	x19, x0
	ldr	x0, [sp, #24]
	cbz	x0, LBB11_20
; %bb.18:                               ; %codeRepl22
	add	x1, sp, #24
	bl	__ZN9ActionSet11get_actionsE8Positioniii.cold.2
	b	LBB11_20
LBB11_19:
Ltmp56:
	mov	x19, x0
LBB11_20:                               ; %.body
	ldrsb	w8, [sp, #23]
	tbz	w8, #31, LBB11_22
; %bb.21:
	ldr	x0, [sp]
	bl	__ZdlPv
LBB11_22:                               ; %_ZNSt3__16vectorINS0_IiNS_9allocatorIiEEEENS1_IS3_EEED1Ev.exit21
	mov	x0, x19
	bl	__Unwind_Resume
Lfunc_end4:
	.cfi_endproc
	.section	__TEXT,__gcc_except_tab
	.p2align	2
GCC_except_table11:
Lexception4:
	.byte	255                             ; @LPStart Encoding = omit
	.byte	255                             ; @TType Encoding = omit
	.byte	1                               ; Call site Encoding = uleb128
	.uleb128 Lcst_end4-Lcst_begin4
Lcst_begin4:
	.uleb128 Lfunc_begin4-Lfunc_begin4      ; >> Call Site 1 <<
	.uleb128 Ltmp54-Lfunc_begin4            ;   Call between Lfunc_begin4 and Ltmp54
	.byte	0                               ;     has no landing pad
	.byte	0                               ;   On action: cleanup
	.uleb128 Ltmp54-Lfunc_begin4            ; >> Call Site 2 <<
	.uleb128 Ltmp55-Ltmp54                  ;   Call between Ltmp54 and Ltmp55
	.uleb128 Ltmp56-Lfunc_begin4            ;     jumps to Ltmp56
	.byte	0                               ;   On action: cleanup
	.uleb128 Ltmp57-Lfunc_begin4            ; >> Call Site 3 <<
	.uleb128 Ltmp58-Ltmp57                  ;   Call between Ltmp57 and Ltmp58
	.uleb128 Ltmp59-Lfunc_begin4            ;     jumps to Ltmp59
	.byte	0                               ;   On action: cleanup
	.uleb128 Ltmp60-Lfunc_begin4            ; >> Call Site 4 <<
	.uleb128 Ltmp61-Ltmp60                  ;   Call between Ltmp60 and Ltmp61
	.uleb128 Ltmp62-Lfunc_begin4            ;     jumps to Ltmp62
	.byte	0                               ;   On action: cleanup
	.uleb128 Ltmp61-Lfunc_begin4            ; >> Call Site 5 <<
	.uleb128 Lfunc_end4-Ltmp61              ;   Call between Ltmp61 and Lfunc_end4
	.byte	0                               ;     has no landing pad
	.byte	0                               ;   On action: cleanup
Lcst_end4:
	.p2align	2
                                        ; -- End function
	.section	__TEXT,__text,regular,pure_instructions
	.globl	__ZN9ActionSet9load_dataENSt3__112basic_stringIcNS0_11char_traitsIcEENS0_9allocatorIcEEEE ; -- Begin function _ZN9ActionSet9load_dataENSt3__112basic_stringIcNS0_11char_traitsIcEENS0_9allocatorIcEEEE
	.p2align	2
__ZN9ActionSet9load_dataENSt3__112basic_stringIcNS0_11char_traitsIcEENS0_9allocatorIcEEEE: ; @_ZN9ActionSet9load_dataENSt3__112basic_stringIcNS0_11char_traitsIcEENS0_9allocatorIcEEEE
Lfunc_begin5:
	.cfi_startproc
	.cfi_personality 155, ___gxx_personality_v0
	.cfi_lsda 16, Lexception5
; %bb.0:
	stp	x28, x27, [sp, #-96]!           ; 16-byte Folded Spill
	stp	x26, x25, [sp, #16]             ; 16-byte Folded Spill
	stp	x24, x23, [sp, #32]             ; 16-byte Folded Spill
	stp	x22, x21, [sp, #48]             ; 16-byte Folded Spill
	stp	x20, x19, [sp, #64]             ; 16-byte Folded Spill
	stp	x29, x30, [sp, #80]             ; 16-byte Folded Spill
	add	x29, sp, #80
	sub	sp, sp, #1008
	.cfi_def_cfa w29, 16
	.cfi_offset w30, -8
	.cfi_offset w29, -16
	.cfi_offset w19, -24
	.cfi_offset w20, -32
	.cfi_offset w21, -40
	.cfi_offset w22, -48
	.cfi_offset w23, -56
	.cfi_offset w24, -64
	.cfi_offset w25, -72
	.cfi_offset w26, -80
	.cfi_offset w27, -88
	.cfi_offset w28, -96
	mov	x21, x1
	mov	x22, x0
Lloh0:
	adrp	x8, ___stack_chk_guard@GOTPAGE
Lloh1:
	ldr	x8, [x8, ___stack_chk_guard@GOTPAGEOFF]
Lloh2:
	ldr	x8, [x8]
	stur	x8, [x29, #-96]
	add	x8, sp, #416
	add	x25, x8, #424
Lloh3:
	adrp	x24, __ZTVNSt3__114basic_ifstreamIcNS_11char_traitsIcEEEE@GOTPAGE
Lloh4:
	ldr	x24, [x24, __ZTVNSt3__114basic_ifstreamIcNS_11char_traitsIcEEEE@GOTPAGEOFF]
	add	x19, x24, #64
Lloh5:
	adrp	x26, __ZTTNSt3__114basic_ifstreamIcNS_11char_traitsIcEEEE@GOTPAGE
Lloh6:
	ldr	x26, [x26, __ZTTNSt3__114basic_ifstreamIcNS_11char_traitsIcEEEE@GOTPAGEOFF]
	add	x20, x8, #16
	ldp	x9, x10, [x26, #8]
	str	x19, [sp, #840]
	str	x9, [sp, #416]
	ldur	x9, [x9, #-24]
	str	x10, [x8, x9]
	str	xzr, [sp, #424]
	ldr	x9, [sp, #416]
	ldur	x9, [x9, #-24]
	add	x23, x8, x9
Ltmp63:
	mov	x0, x23
	mov	x1, x20
	bl	__ZNSt3__18ios_base4initEPv
Ltmp64:
; %bb.1:
	str	xzr, [x23, #136]
	mov	w8, #-1
	str	w8, [x23, #144]
	add	x8, x24, #24
	str	x8, [sp, #416]
	str	x19, [sp, #840]
Ltmp66:
	mov	x0, x20
	bl	__ZNSt3__113basic_filebufIcNS_11char_traitsIcEEEC1Ev
Ltmp67:
; %bb.2:                                ; %_ZNSt3__114basic_ifstreamIcNS_11char_traitsIcEEEC1Ev.exit
Ltmp69:
	add	x0, sp, #416
	mov	x1, x21
	mov	w2, #8
	str	x25, [sp]                       ; 8-byte Folded Spill
	bl	__ZNSt3__114basic_ifstreamIcNS_11char_traitsIcEEE4openERKNS_12basic_stringIcS2_NS_9allocatorIcEEEEj
Ltmp70:
; %bb.3:
	ldr	x8, [sp, #552]
	cbz	x8, LBB12_28
; %bb.4:                                ; %_ZNKSt3__112basic_stringIcNS_11char_traitsIcEENS_9allocatorIcEEE4dataEv.exit
Lloh7:
	adrp	x8, _action_primitives@PAGE
Lloh8:
	add	x8, x8, _action_primitives@PAGEOFF
	ldrsb	w9, [x8, #23]
	ldr	x10, [x8]
	cmp	w9, #0
	csel	x8, x10, x8, lt
	str	x8, [sp, #56]
	str	xzr, [sp, #408]
Ltmp71:
	add	x19, sp, #336
	add	x21, sp, #384
	add	x8, sp, #336
	add	x0, sp, #56
	add	x1, sp, #384
	mov	w3, #0
	mov	w2, #1
	bl	__ZN8nlohmann10basic_jsonINSt3__13mapENS1_6vectorENS1_12basic_stringIcNS1_11char_traitsIcEENS1_9allocatorIcEEEEbxydS7_NS_14adl_serializerENS3_IhNS7_IhEEEEE5parseIPKcEESD_OT_NS1_8functionIFbiNS_6detail13parse_event_tERSD_EEEbb
Ltmp72:
; %bb.5:
	add	x0, sp, #336
	mov	w1, #1
	bl	__ZNK8nlohmann10basic_jsonINSt3__13mapENS1_6vectorENS1_12basic_stringIcNS1_11char_traitsIcEENS1_9allocatorIcEEEEbxydS7_NS_14adl_serializerENS3_IhNS7_IhEEEEE16assert_invariantEb
	ldrb	w8, [x22]
	ldrb	w9, [sp, #336]
	strb	w9, [x22]
	strb	w8, [sp, #336]
	add	x21, x19, #8
	ldr	x8, [x22, #8]
	ldr	x9, [sp, #344]
	str	x9, [x22, #8]
	str	x8, [sp, #344]
	mov	x0, x22
	mov	w1, #1
	bl	__ZNK8nlohmann10basic_jsonINSt3__13mapENS1_6vectorENS1_12basic_stringIcNS1_11char_traitsIcEENS1_9allocatorIcEEEEbxydS7_NS_14adl_serializerENS3_IhNS7_IhEEEEE16assert_invariantEb
	add	x0, sp, #336
	mov	w1, #0
	bl	__ZNK8nlohmann10basic_jsonINSt3__13mapENS1_6vectorENS1_12basic_stringIcNS1_11char_traitsIcEENS1_9allocatorIcEEEEbxydS7_NS_14adl_serializerENS3_IhNS7_IhEEEEE16assert_invariantEb
	ldrb	w1, [sp, #336]
Ltmp74:
	mov	x0, x21
	bl	__ZN8nlohmann10basic_jsonINSt3__13mapENS1_6vectorENS1_12basic_stringIcNS1_11char_traitsIcEENS1_9allocatorIcEEEEbxydS7_NS_14adl_serializerENS3_IhNS7_IhEEEEE10json_value7destroyENS_6detail7value_tE
Ltmp75:
; %bb.6:                                ; %_ZN8nlohmann10basic_jsonINSt3__13mapENS1_6vectorENS1_12basic_stringIcNS1_11char_traitsIcEENS1_9allocatorIcEEEEbxydS7_NS_14adl_serializerENS3_IhNS7_IhEEEEED1Ev.exit
	ldr	x0, [sp, #408]
	add	x8, sp, #384
	cmp	x8, x0
	b.eq	LBB12_9
; %bb.7:
	cbz	x0, LBB12_11
; %bb.8:
	ldr	x8, [x0]
	ldr	x8, [x8, #40]
	b	LBB12_10
LBB12_9:
	ldr	x8, [x0]
	ldr	x8, [x8, #32]
LBB12_10:                               ; %_ZNSt3__18functionIFbiN8nlohmann6detail13parse_event_tERNS1_10basic_jsonINS_3mapENS_6vectorENS_12basic_stringIcNS_11char_traitsIcEENS_9allocatorIcEEEEbxydSA_NS1_14adl_serializerENS6_IhNSA_IhEEEEEEEED1Ev.exit
	blr	x8
LBB12_11:                               ; %_ZNSt3__18functionIFbiN8nlohmann6detail13parse_event_tERNS1_10basic_jsonINS_3mapENS_6vectorENS_12basic_stringIcNS_11char_traitsIcEENS_9allocatorIcEEEEbxydSA_NS1_14adl_serializerENS6_IhNSA_IhEEEEEEEED1Ev.exit
	add	x27, sp, #56
Lloh9:
	adrp	x19, __ZTVNSt3__118basic_stringstreamIcNS_11char_traitsIcEENS_9allocatorIcEEEE@GOTPAGE
Lloh10:
	ldr	x19, [x19, __ZTVNSt3__118basic_stringstreamIcNS_11char_traitsIcEENS_9allocatorIcEEEE@GOTPAGEOFF]
	add	x21, x27, #128
	add	x28, x19, #104
	str	x28, [sp, #184]
	add	x25, x19, #64
Lloh11:
	adrp	x26, __ZTTNSt3__118basic_stringstreamIcNS_11char_traitsIcEENS_9allocatorIcEEEE@GOTPAGE
Lloh12:
	ldr	x26, [x26, __ZTTNSt3__118basic_stringstreamIcNS_11char_traitsIcEENS_9allocatorIcEEEE@GOTPAGEOFF]
	add	x23, x27, #24
	ldp	x8, x9, [x26, #16]
	str	x25, [sp, #72]
	str	x8, [sp, #56]
	ldur	x8, [x8, #-24]
	str	x9, [x27, x8]
	str	xzr, [sp, #64]
	ldr	x8, [sp, #56]
	ldur	x8, [x8, #-24]
	add	x24, x27, x8
Ltmp77:
	mov	x0, x24
	mov	x1, x23
	bl	__ZNSt3__18ios_base4initEPv
Ltmp78:
; %bb.12:
	str	xzr, [x24, #136]
	mov	w8, #-1
	str	w8, [x24, #144]
	add	x24, x27, #16
	ldp	x8, x9, [x26, #32]
	str	x8, [sp, #72]
	ldur	x8, [x8, #-24]
	str	x9, [x24, x8]
	ldr	x8, [x26, #8]
	str	x8, [sp, #56]
	ldr	x9, [x26, #48]
	ldur	x8, [x8, #-24]
	str	x9, [x27, x8]
	add	x8, x19, #24
	str	x28, [sp, #184]
	str	x8, [sp, #56]
	str	x25, [sp, #72]
Ltmp80:
	mov	x0, x23
	bl	__ZNSt3__115basic_streambufIcNS_11char_traitsIcEEEC2Ev
Ltmp81:
; %bb.13:
	add	x8, sp, #56
Lloh13:
	adrp	x27, __ZTVNSt3__115basic_stringbufIcNS_11char_traitsIcEENS_9allocatorIcEEEE@GOTPAGE
Lloh14:
	ldr	x27, [x27, __ZTVNSt3__115basic_stringbufIcNS_11char_traitsIcEENS_9allocatorIcEEEE@GOTPAGEOFF]
	add	x9, x27, #16
	str	x9, [sp, #80]
	movi.2d	v0, #0000000000000000
	stur	q0, [x8, #88]
	stur	q0, [x8, #104]
	mov	w8, #24
	str	w8, [sp, #176]
Ltmp83:
	mov	x0, x24
	mov	x1, x20
	bl	__ZNSt3__113basic_ostreamIcNS_11char_traitsIcEEElsEPNS_15basic_streambufIcS2_EE
Ltmp84:
; %bb.14:
Ltmp86:
	add	x19, sp, #32
	add	x8, sp, #32
	mov	x0, x23
	bl	__ZNKSt3__115basic_stringbufIcNS_11char_traitsIcEENS_9allocatorIcEEE3strEv
Ltmp87:
; %bb.15:                               ; %_ZNKSt3__118basic_stringstreamIcNS_11char_traitsIcEENS_9allocatorIcEEE3strEv.exit
	ldrsb	w8, [sp, #55]
	ldr	x9, [sp, #32]
	cmp	w8, #0
	csel	x8, x9, x19, lt
	str	x8, [sp, #8]
	str	xzr, [sp, #376]
Ltmp89:
	add	x19, sp, #16
	add	x24, sp, #352
	add	x8, sp, #16
	add	x0, sp, #8
	add	x1, sp, #352
	mov	w3, #0
	mov	w2, #1
	bl	__ZN8nlohmann10basic_jsonINSt3__13mapENS1_6vectorENS1_12basic_stringIcNS1_11char_traitsIcEENS1_9allocatorIcEEEEbxydS7_NS_14adl_serializerENS3_IhNS7_IhEEEEE5parseIPKcEESD_OT_NS1_8functionIFbiNS_6detail13parse_event_tERSD_EEEbb
Ltmp90:
; %bb.16:
	add	x0, sp, #16
	mov	w1, #1
	bl	__ZNK8nlohmann10basic_jsonINSt3__13mapENS1_6vectorENS1_12basic_stringIcNS1_11char_traitsIcEENS1_9allocatorIcEEEEbxydS7_NS_14adl_serializerENS3_IhNS7_IhEEEEE16assert_invariantEb
	ldrb	w8, [x22, #16]!
	ldrb	w9, [sp, #16]
	strb	w9, [x22]
	strb	w8, [sp, #16]
	add	x24, x19, #8
	ldr	x8, [x22, #8]
	ldr	x9, [sp, #24]
	str	x9, [x22, #8]
	str	x8, [sp, #24]
	mov	x0, x22
	mov	w1, #1
	bl	__ZNK8nlohmann10basic_jsonINSt3__13mapENS1_6vectorENS1_12basic_stringIcNS1_11char_traitsIcEENS1_9allocatorIcEEEEbxydS7_NS_14adl_serializerENS3_IhNS7_IhEEEEE16assert_invariantEb
	add	x0, sp, #16
	mov	w1, #0
	bl	__ZNK8nlohmann10basic_jsonINSt3__13mapENS1_6vectorENS1_12basic_stringIcNS1_11char_traitsIcEENS1_9allocatorIcEEEEbxydS7_NS_14adl_serializerENS3_IhNS7_IhEEEEE16assert_invariantEb
	ldrb	w1, [sp, #16]
Ltmp92:
	mov	x0, x24
	bl	__ZN8nlohmann10basic_jsonINSt3__13mapENS1_6vectorENS1_12basic_stringIcNS1_11char_traitsIcEENS1_9allocatorIcEEEEbxydS7_NS_14adl_serializerENS3_IhNS7_IhEEEEE10json_value7destroyENS_6detail7value_tE
Ltmp93:
; %bb.17:                               ; %_ZN8nlohmann10basic_jsonINSt3__13mapENS1_6vectorENS1_12basic_stringIcNS1_11char_traitsIcEENS1_9allocatorIcEEEEbxydS7_NS_14adl_serializerENS3_IhNS7_IhEEEEED1Ev.exit17
	ldr	x0, [sp, #376]
	add	x8, sp, #352
	cmp	x8, x0
	b.eq	LBB12_20
; %bb.18:
	cbz	x0, LBB12_22
; %bb.19:
	ldr	x8, [x0]
	ldr	x8, [x8, #40]
	b	LBB12_21
LBB12_20:
	ldr	x8, [x0]
	ldr	x8, [x8, #32]
LBB12_21:                               ; %_ZNSt3__18functionIFbiN8nlohmann6detail13parse_event_tERNS1_10basic_jsonINS_3mapENS_6vectorENS_12basic_stringIcNS_11char_traitsIcEENS_9allocatorIcEEEEbxydSA_NS1_14adl_serializerENS6_IhNSA_IhEEEEEEEED1Ev.exit19
	blr	x8
LBB12_22:                               ; %_ZNSt3__18functionIFbiN8nlohmann6detail13parse_event_tERNS1_10basic_jsonINS_3mapENS_6vectorENS_12basic_stringIcNS_11char_traitsIcEENS_9allocatorIcEEEEbxydSA_NS1_14adl_serializerENS6_IhNSA_IhEEEEEEEED1Ev.exit19
	ldrsb	w8, [sp, #55]
	tbz	w8, #31, LBB12_24
; %bb.23:
	ldr	x0, [sp, #32]
	bl	__ZdlPv
LBB12_24:                               ; %_ZNSt3__112basic_stringIcNS_11char_traitsIcEENS_9allocatorIcEEED1Ev.exit
	ldr	x8, [x26]
	str	x8, [sp, #56]
	ldur	x8, [x8, #-24]
	add	x9, sp, #56
	ldp	x10, x11, [x26, #64]
	str	x10, [x9, x8]
	add	x8, x27, #16
	stp	x11, x8, [sp, #72]
	ldrsb	w8, [sp, #167]
	tbz	w8, #31, LBB12_26
; %bb.25:
	ldr	x0, [sp, #144]
	bl	__ZdlPv
LBB12_26:                               ; %_ZNSt3__118basic_stringstreamIcNS_11char_traitsIcEENS_9allocatorIcEEED1Ev.exit
	mov	x0, x23
	bl	__ZNSt3__115basic_streambufIcNS_11char_traitsIcEEED2Ev
	add	x1, x26, #8
	add	x0, sp, #56
	bl	__ZNSt3__114basic_iostreamIcNS_11char_traitsIcEEED2Ev
	mov	x0, x21
	bl	__ZNSt3__19basic_iosIcNS_11char_traitsIcEEED2Ev
Lloh15:
	adrp	x19, __ZTTNSt3__114basic_ifstreamIcNS_11char_traitsIcEEEE@GOTPAGE
Lloh16:
	ldr	x19, [x19, __ZTTNSt3__114basic_ifstreamIcNS_11char_traitsIcEEEE@GOTPAGEOFF]
	ldr	x8, [x19]
	str	x8, [sp, #416]
	ldr	x9, [x19, #24]
	ldur	x8, [x8, #-24]
	add	x10, sp, #416
	str	x9, [x10, x8]
	mov	x0, x20
	bl	__ZNSt3__113basic_filebufIcNS_11char_traitsIcEEED1Ev
	add	x1, x19, #8
	add	x0, sp, #416
	bl	__ZNSt3__113basic_istreamIcNS_11char_traitsIcEEED2Ev
	ldr	x0, [sp]                        ; 8-byte Folded Reload
	bl	__ZNSt3__19basic_iosIcNS_11char_traitsIcEEED2Ev
	ldur	x8, [x29, #-96]
Lloh17:
	adrp	x9, ___stack_chk_guard@GOTPAGE
Lloh18:
	ldr	x9, [x9, ___stack_chk_guard@GOTPAGEOFF]
Lloh19:
	ldr	x9, [x9]
	cmp	x9, x8
	b.ne	LBB12_36
; %bb.27:                               ; %_ZNSt3__118basic_stringstreamIcNS_11char_traitsIcEENS_9allocatorIcEEED1Ev.exit
	add	sp, sp, #1008
	ldp	x29, x30, [sp, #80]             ; 16-byte Folded Reload
	ldp	x20, x19, [sp, #64]             ; 16-byte Folded Reload
	ldp	x22, x21, [sp, #48]             ; 16-byte Folded Reload
	ldp	x24, x23, [sp, #32]             ; 16-byte Folded Reload
	ldp	x26, x25, [sp, #16]             ; 16-byte Folded Reload
	ldp	x28, x27, [sp], #96             ; 16-byte Folded Reload
	ret
LBB12_28:
Ltmp95:
Lloh20:
	adrp	x0, __ZNSt3__14coutE@GOTPAGE
Lloh21:
	ldr	x0, [x0, __ZNSt3__14coutE@GOTPAGEOFF]
Lloh22:
	adrp	x1, l_.str.1@PAGE
Lloh23:
	add	x1, x1, l_.str.1@PAGEOFF
	mov	w2, #29
	bl	__ZNSt3__124__put_character_sequenceIcNS_11char_traitsIcEEEERNS_13basic_ostreamIT_T0_EES7_PKS4_m
Ltmp96:
; %bb.29:                               ; %_ZNSt3__1lsINS_11char_traitsIcEEEERNS_13basic_ostreamIcT_EES6_PKc.exit
	mov	x21, x0
	ldr	x8, [x0]
	ldur	x8, [x8, #-24]
	add	x0, x0, x8
Ltmp97:
	add	x8, sp, #56
	bl	__ZNKSt3__18ios_base6getlocEv
Ltmp98:
; %bb.30:                               ; %.noexc
Ltmp99:
Lloh24:
	adrp	x1, __ZNSt3__15ctypeIcE2idE@GOTPAGE
Lloh25:
	ldr	x1, [x1, __ZNSt3__15ctypeIcE2idE@GOTPAGEOFF]
	add	x0, sp, #56
	bl	__ZNKSt3__16locale9use_facetERNS0_2idE
Ltmp100:
; %bb.31:
	ldr	x8, [x0]
	ldr	x8, [x8, #56]
Ltmp101:
	mov	w1, #10
	blr	x8
Ltmp102:
; %bb.32:                               ; %_ZNSt3__14endlIcNS_11char_traitsIcEEEERNS_13basic_ostreamIT_T0_EES7_.exit.i
	mov	x22, x0
	add	x0, sp, #56
	bl	__ZNSt3__16localeD1Ev
Ltmp104:
	mov	x0, x21
	mov	x1, x22
	bl	__ZNSt3__113basic_ostreamIcNS_11char_traitsIcEEE3putEc
Ltmp105:
; %bb.33:                               ; %.noexc10
Ltmp106:
	mov	x0, x21
	bl	__ZNSt3__113basic_ostreamIcNS_11char_traitsIcEEE5flushEv
Ltmp107:
; %bb.34:                               ; %_ZNSt3__113basic_ostreamIcNS_11char_traitsIcEEElsEPFRS3_S4_E.exit
Ltmp108:
	mov	w0, #1
	bl	_exit
Ltmp109:
; %bb.35:
	brk	#0x1
LBB12_36:                               ; %_ZNSt3__118basic_stringstreamIcNS_11char_traitsIcEENS_9allocatorIcEEED1Ev.exit
	bl	___stack_chk_fail
LBB12_37:
Ltmp103:
	mov	x22, x0
	add	x0, sp, #56
	bl	__ZNSt3__16localeD1Ev
	b	LBB12_61
LBB12_38:
Ltmp94:
	bl	___clang_call_terminate
LBB12_39:
Ltmp91:
	mov	x22, x0
	ldr	x0, [sp, #376]
	cmp	x24, x0
	b.eq	LBB12_42
; %bb.40:                               ; %codeRepl
	bl	__ZN9ActionSet9load_dataENSt3__112basic_stringIcNS0_11char_traitsIcEENS0_9allocatorIcEEEE.cold.1
	ldrsb	w8, [sp, #55]
	tbz	w8, #31, LBB12_46
LBB12_41:
	ldr	x0, [sp, #32]
	bl	__ZdlPv
	b	LBB12_46
LBB12_42:
	ldr	x8, [x0]
	ldr	x8, [x8, #32]
	blr	x8
	ldrsb	w8, [sp, #55]
	tbnz	w8, #31, LBB12_41
	b	LBB12_46
LBB12_43:
Ltmp88:
	b	LBB12_45
LBB12_44:
Ltmp85:
LBB12_45:
	mov	x22, x0
LBB12_46:
	ldr	x8, [x26]
	str	x8, [sp, #56]
	ldur	x8, [x8, #-24]
	add	x9, sp, #56
	ldp	x10, x11, [x26, #64]
	str	x10, [x9, x8]
	add	x8, x27, #16
	stp	x11, x8, [sp, #72]
	ldrsb	w8, [sp, #167]
	tbz	w8, #31, LBB12_48
; %bb.47:
	ldr	x0, [sp, #144]
	bl	__ZdlPv
LBB12_48:                               ; %_ZNSt3__118basic_stringstreamIcNS_11char_traitsIcEENS_9allocatorIcEEED1Ev.exit25
	mov	x0, x23
	bl	__ZNSt3__115basic_streambufIcNS_11char_traitsIcEEED2Ev
	b	LBB12_50
LBB12_49:
Ltmp82:
	mov	x22, x0
LBB12_50:                               ; %.body13
	add	x1, x26, #8
	add	x0, sp, #56
	bl	__ZNSt3__114basic_iostreamIcNS_11char_traitsIcEEED2Ev
	b	LBB12_52
LBB12_51:
Ltmp79:
	mov	x22, x0
LBB12_52:                               ; %.body13
	mov	x0, x21
	bl	__ZNSt3__19basic_iosIcNS_11char_traitsIcEEED2Ev
	b	LBB12_61
LBB12_53:
Ltmp76:
	bl	___clang_call_terminate
LBB12_54:
Ltmp73:
	mov	x22, x0
	ldr	x0, [sp, #408]
	cmp	x21, x0
	b.eq	LBB12_56
; %bb.55:                               ; %codeRepl26
	bl	__ZN9ActionSet9load_dataENSt3__112basic_stringIcNS0_11char_traitsIcEENS0_9allocatorIcEEEE.cold.2
	b	LBB12_61
LBB12_56:
	ldr	x8, [x0]
	ldr	x8, [x8, #32]
	blr	x8
	b	LBB12_61
LBB12_57:
Ltmp68:
	mov	x19, x25
	mov	x22, x0
	add	x1, x26, #8
	add	x0, sp, #416
	bl	__ZNSt3__113basic_istreamIcNS_11char_traitsIcEEED2Ev
	b	LBB12_59
LBB12_58:
Ltmp65:
	mov	x19, x25
	mov	x22, x0
LBB12_59:
	mov	x0, x19
	b	LBB12_62
LBB12_60:
Ltmp110:
	mov	x22, x0
LBB12_61:                               ; %.body
Lloh26:
	adrp	x19, __ZTTNSt3__114basic_ifstreamIcNS_11char_traitsIcEEEE@GOTPAGE
Lloh27:
	ldr	x19, [x19, __ZTTNSt3__114basic_ifstreamIcNS_11char_traitsIcEEEE@GOTPAGEOFF]
	ldr	x8, [x19]
	str	x8, [sp, #416]
	ldr	x9, [x19, #24]
	ldur	x8, [x8, #-24]
	add	x10, sp, #416
	str	x9, [x10, x8]
	mov	x0, x20
	bl	__ZNSt3__113basic_filebufIcNS_11char_traitsIcEEED1Ev
	add	x1, x19, #8
	add	x0, sp, #416
	bl	__ZNSt3__113basic_istreamIcNS_11char_traitsIcEEED2Ev
	ldr	x0, [sp]                        ; 8-byte Folded Reload
LBB12_62:                               ; %common.resume
	bl	__ZNSt3__19basic_iosIcNS_11char_traitsIcEEED2Ev
	mov	x0, x22
	bl	__Unwind_Resume
	.loh AdrpLdrGot	Lloh5, Lloh6
	.loh AdrpLdrGot	Lloh3, Lloh4
	.loh AdrpLdrGotLdr	Lloh0, Lloh1, Lloh2
	.loh AdrpAdd	Lloh7, Lloh8
	.loh AdrpLdrGot	Lloh11, Lloh12
	.loh AdrpLdrGot	Lloh9, Lloh10
	.loh AdrpLdrGot	Lloh13, Lloh14
	.loh AdrpLdrGotLdr	Lloh17, Lloh18, Lloh19
	.loh AdrpLdrGot	Lloh15, Lloh16
	.loh AdrpAdd	Lloh22, Lloh23
	.loh AdrpLdrGot	Lloh20, Lloh21
	.loh AdrpLdrGot	Lloh24, Lloh25
	.loh AdrpLdrGot	Lloh26, Lloh27
Lfunc_end5:
	.cfi_endproc
	.section	__TEXT,__gcc_except_tab
	.p2align	2
GCC_except_table12:
Lexception5:
	.byte	255                             ; @LPStart Encoding = omit
	.byte	155                             ; @TType Encoding = indirect pcrel sdata4
	.uleb128 Lttbase3-Lttbaseref3
Lttbaseref3:
	.byte	1                               ; Call site Encoding = uleb128
	.uleb128 Lcst_end5-Lcst_begin5
Lcst_begin5:
	.uleb128 Ltmp63-Lfunc_begin5            ; >> Call Site 1 <<
	.uleb128 Ltmp64-Ltmp63                  ;   Call between Ltmp63 and Ltmp64
	.uleb128 Ltmp65-Lfunc_begin5            ;     jumps to Ltmp65
	.byte	0                               ;   On action: cleanup
	.uleb128 Ltmp66-Lfunc_begin5            ; >> Call Site 2 <<
	.uleb128 Ltmp67-Ltmp66                  ;   Call between Ltmp66 and Ltmp67
	.uleb128 Ltmp68-Lfunc_begin5            ;     jumps to Ltmp68
	.byte	0                               ;   On action: cleanup
	.uleb128 Ltmp69-Lfunc_begin5            ; >> Call Site 3 <<
	.uleb128 Ltmp70-Ltmp69                  ;   Call between Ltmp69 and Ltmp70
	.uleb128 Ltmp110-Lfunc_begin5           ;     jumps to Ltmp110
	.byte	0                               ;   On action: cleanup
	.uleb128 Ltmp71-Lfunc_begin5            ; >> Call Site 4 <<
	.uleb128 Ltmp72-Ltmp71                  ;   Call between Ltmp71 and Ltmp72
	.uleb128 Ltmp73-Lfunc_begin5            ;     jumps to Ltmp73
	.byte	0                               ;   On action: cleanup
	.uleb128 Ltmp74-Lfunc_begin5            ; >> Call Site 5 <<
	.uleb128 Ltmp75-Ltmp74                  ;   Call between Ltmp74 and Ltmp75
	.uleb128 Ltmp76-Lfunc_begin5            ;     jumps to Ltmp76
	.byte	1                               ;   On action: 1
	.uleb128 Ltmp75-Lfunc_begin5            ; >> Call Site 6 <<
	.uleb128 Ltmp77-Ltmp75                  ;   Call between Ltmp75 and Ltmp77
	.byte	0                               ;     has no landing pad
	.byte	0                               ;   On action: cleanup
	.uleb128 Ltmp77-Lfunc_begin5            ; >> Call Site 7 <<
	.uleb128 Ltmp78-Ltmp77                  ;   Call between Ltmp77 and Ltmp78
	.uleb128 Ltmp79-Lfunc_begin5            ;     jumps to Ltmp79
	.byte	0                               ;   On action: cleanup
	.uleb128 Ltmp80-Lfunc_begin5            ; >> Call Site 8 <<
	.uleb128 Ltmp81-Ltmp80                  ;   Call between Ltmp80 and Ltmp81
	.uleb128 Ltmp82-Lfunc_begin5            ;     jumps to Ltmp82
	.byte	0                               ;   On action: cleanup
	.uleb128 Ltmp83-Lfunc_begin5            ; >> Call Site 9 <<
	.uleb128 Ltmp84-Ltmp83                  ;   Call between Ltmp83 and Ltmp84
	.uleb128 Ltmp85-Lfunc_begin5            ;     jumps to Ltmp85
	.byte	0                               ;   On action: cleanup
	.uleb128 Ltmp86-Lfunc_begin5            ; >> Call Site 10 <<
	.uleb128 Ltmp87-Ltmp86                  ;   Call between Ltmp86 and Ltmp87
	.uleb128 Ltmp88-Lfunc_begin5            ;     jumps to Ltmp88
	.byte	0                               ;   On action: cleanup
	.uleb128 Ltmp89-Lfunc_begin5            ; >> Call Site 11 <<
	.uleb128 Ltmp90-Ltmp89                  ;   Call between Ltmp89 and Ltmp90
	.uleb128 Ltmp91-Lfunc_begin5            ;     jumps to Ltmp91
	.byte	0                               ;   On action: cleanup
	.uleb128 Ltmp92-Lfunc_begin5            ; >> Call Site 12 <<
	.uleb128 Ltmp93-Ltmp92                  ;   Call between Ltmp92 and Ltmp93
	.uleb128 Ltmp94-Lfunc_begin5            ;     jumps to Ltmp94
	.byte	1                               ;   On action: 1
	.uleb128 Ltmp93-Lfunc_begin5            ; >> Call Site 13 <<
	.uleb128 Ltmp95-Ltmp93                  ;   Call between Ltmp93 and Ltmp95
	.byte	0                               ;     has no landing pad
	.byte	0                               ;   On action: cleanup
	.uleb128 Ltmp95-Lfunc_begin5            ; >> Call Site 14 <<
	.uleb128 Ltmp98-Ltmp95                  ;   Call between Ltmp95 and Ltmp98
	.uleb128 Ltmp110-Lfunc_begin5           ;     jumps to Ltmp110
	.byte	0                               ;   On action: cleanup
	.uleb128 Ltmp99-Lfunc_begin5            ; >> Call Site 15 <<
	.uleb128 Ltmp102-Ltmp99                 ;   Call between Ltmp99 and Ltmp102
	.uleb128 Ltmp103-Lfunc_begin5           ;     jumps to Ltmp103
	.byte	0                               ;   On action: cleanup
	.uleb128 Ltmp104-Lfunc_begin5           ; >> Call Site 16 <<
	.uleb128 Ltmp109-Ltmp104                ;   Call between Ltmp104 and Ltmp109
	.uleb128 Ltmp110-Lfunc_begin5           ;     jumps to Ltmp110
	.byte	0                               ;   On action: cleanup
	.uleb128 Ltmp109-Lfunc_begin5           ; >> Call Site 17 <<
	.uleb128 Lfunc_end5-Ltmp109             ;   Call between Ltmp109 and Lfunc_end5
	.byte	0                               ;     has no landing pad
	.byte	0                               ;   On action: cleanup
Lcst_end5:
	.byte	1                               ; >> Action Record 1 <<
                                        ;   Catch TypeInfo 1
	.byte	0                               ;   No further actions
	.p2align	2
                                        ; >> Catch TypeInfos <<
	.long	0                               ; TypeInfo 1
Lttbase3:
	.p2align	2
                                        ; -- End function
	.section	__TEXT,__text,regular,pure_instructions
	.globl	__ZN8nlohmann10basic_jsonINSt3__13mapENS1_6vectorENS1_12basic_stringIcNS1_11char_traitsIcEENS1_9allocatorIcEEEEbxydS7_NS_14adl_serializerENS3_IhNS7_IhEEEEE5parseIPKcEESD_OT_NS1_8functionIFbiNS_6detail13parse_event_tERSD_EEEbb ; -- Begin function _ZN8nlohmann10basic_jsonINSt3__13mapENS1_6vectorENS1_12basic_stringIcNS1_11char_traitsIcEENS1_9allocatorIcEEEEbxydS7_NS_14adl_serializerENS3_IhNS7_IhEEEEE5parseIPKcEESD_OT_NS1_8functionIFbiNS_6detail13parse_event_tERSD_EEEbb
	.weak_def_can_be_hidden	__ZN8nlohmann10basic_jsonINSt3__13mapENS1_6vectorENS1_12basic_stringIcNS1_11char_traitsIcEENS1_9allocatorIcEEEEbxydS7_NS_14adl_serializerENS3_IhNS7_IhEEEEE5parseIPKcEESD_OT_NS1_8functionIFbiNS_6detail13parse_event_tERSD_EEEbb
	.p2align	2
__ZN8nlohmann10basic_jsonINSt3__13mapENS1_6vectorENS1_12basic_stringIcNS1_11char_traitsIcEENS1_9allocatorIcEEEEbxydS7_NS_14adl_serializerENS3_IhNS7_IhEEEEE5parseIPKcEESD_OT_NS1_8functionIFbiNS_6detail13parse_event_tERSD_EEEbb: ; @_ZN8nlohmann10basic_jsonINSt3__13mapENS1_6vectorENS1_12basic_stringIcNS1_11char_traitsIcEENS1_9allocatorIcEEEEbxydS7_NS_14adl_serializerENS3_IhNS7_IhEEEEE5parseIPKcEESD_OT_NS1_8functionIFbiNS_6detail13parse_event_tERSD_EEEbb
Lfunc_begin6:
	.cfi_startproc
	.cfi_personality 155, ___gxx_personality_v0
	.cfi_lsda 16, Lexception6
; %bb.0:
	sub	sp, sp, #336
	stp	x28, x27, [sp, #256]            ; 16-byte Folded Spill
	stp	x24, x23, [sp, #272]            ; 16-byte Folded Spill
	stp	x22, x21, [sp, #288]            ; 16-byte Folded Spill
	stp	x20, x19, [sp, #304]            ; 16-byte Folded Spill
	stp	x29, x30, [sp, #320]            ; 16-byte Folded Spill
	add	x29, sp, #320
	.cfi_def_cfa w29, 16
	.cfi_offset w30, -8
	.cfi_offset w29, -16
	.cfi_offset w19, -24
	.cfi_offset w20, -32
	.cfi_offset w21, -40
	.cfi_offset w22, -48
	.cfi_offset w23, -56
	.cfi_offset w24, -64
	.cfi_offset w27, -72
	.cfi_offset w28, -80
	mov	x20, x3
	mov	x21, x2
	mov	x24, x1
	mov	x22, x0
	mov	x19, x8
Lloh28:
	adrp	x8, ___stack_chk_guard@GOTPAGE
Lloh29:
	ldr	x8, [x8, ___stack_chk_guard@GOTPAGEOFF]
Lloh30:
	ldr	x8, [x8]
	stur	x8, [x29, #-72]
	strb	wzr, [x19]
	str	xzr, [x19, #8]
	mov	x0, x19
	mov	w1, #1
	bl	__ZNK8nlohmann10basic_jsonINSt3__13mapENS1_6vectorENS1_12basic_stringIcNS1_11char_traitsIcEENS1_9allocatorIcEEEEbxydS7_NS_14adl_serializerENS3_IhNS7_IhEEEEE16assert_invariantEb
	mov	x0, x19
	mov	w1, #1
	bl	__ZNK8nlohmann10basic_jsonINSt3__13mapENS1_6vectorENS1_12basic_stringIcNS1_11char_traitsIcEENS1_9allocatorIcEEEEbxydS7_NS_14adl_serializerENS3_IhNS7_IhEEEEE16assert_invariantEb
	ldr	x22, [x22]
	mov	x0, x22
	bl	_strlen
	mov	x23, x0
	ldr	x0, [x24, #24]
	cbz	x0, LBB13_3
; %bb.1:
	cmp	x24, x0
	b.eq	LBB13_4
; %bb.2:
	ldr	x8, [x0]
	ldr	x8, [x8, #16]
Ltmp111:
	blr	x8
Ltmp112:
LBB13_3:                                ; %_ZNSt3__18functionIFbiN8nlohmann6detail13parse_event_tERNS1_10basic_jsonINS_3mapENS_6vectorENS_12basic_stringIcNS_11char_traitsIcEENS_9allocatorIcEEEEbxydSA_NS1_14adl_serializerENS6_IhNSA_IhEEEEEEEEC1ERKSJ_.exit.sink.split
	str	x0, [sp, #48]
	b	LBB13_5
LBB13_4:
	add	x8, sp, #24
	str	x8, [sp, #48]
	ldr	x8, [x0]
	ldr	x8, [x8, #24]
Ltmp113:
	add	x1, sp, #24
	blr	x8
Ltmp114:
LBB13_5:                                ; %_ZNSt3__18functionIFbiN8nlohmann6detail13parse_event_tERNS1_10basic_jsonINS_3mapENS_6vectorENS_12basic_stringIcNS_11char_traitsIcEENS_9allocatorIcEEEEbxydSA_NS1_14adl_serializerENS6_IhNSA_IhEEEEEEEEC1ERKSJ_.exit
	add	x1, x22, x23
Ltmp116:
	add	x8, sp, #56
	add	x2, sp, #24
	mov	x0, x22
	mov	x3, x21
	mov	x4, x20
	bl	__ZN8nlohmann10basic_jsonINSt3__13mapENS1_6vectorENS1_12basic_stringIcNS1_11char_traitsIcEENS1_9allocatorIcEEEEbxydS7_NS_14adl_serializerENS3_IhNS7_IhEEEEE6parserINS_6detail22iterator_input_adapterIPKcEEEENSF_6parserISD_T_EESL_NS1_8functionIFbiNSF_13parse_event_tERSD_EEEbb
Ltmp117:
; %bb.6:
Ltmp119:
	add	x0, sp, #56
	mov	w1, #1
	mov	x2, x19
	bl	__ZN8nlohmann6detail6parserINS_10basic_jsonINSt3__13mapENS3_6vectorENS3_12basic_stringIcNS3_11char_traitsIcEENS3_9allocatorIcEEEEbxydS9_NS_14adl_serializerENS5_IhNS9_IhEEEEEENS0_22iterator_input_adapterIPKcEEE5parseEbRSF_
Ltmp120:
; %bb.7:
	ldrsb	w8, [sp, #199]
	tbz	w8, #31, LBB13_9
; %bb.8:
	ldr	x0, [sp, #176]
	bl	__ZdlPv
LBB13_9:                                ; %_ZNSt3__112basic_stringIcNS_11char_traitsIcEENS_9allocatorIcEEED1Ev.exit.i.i.i.i
	ldr	x0, [sp, #152]
	cbz	x0, LBB13_11
; %bb.10:
	str	x0, [sp, #160]
	bl	__ZdlPv
LBB13_11:                               ; %_ZN8nlohmann6detail5lexerINS_10basic_jsonINSt3__13mapENS3_6vectorENS3_12basic_stringIcNS3_11char_traitsIcEENS3_9allocatorIcEEEEbxydS9_NS_14adl_serializerENS5_IhNS9_IhEEEEEENS0_22iterator_input_adapterIPKcEEED1Ev.exit.i.i
	ldr	x0, [sp, #80]
	add	x8, sp, #56
	cmp	x8, x0
	b.eq	LBB13_14
; %bb.12:
	cbz	x0, LBB13_16
; %bb.13:
	ldr	x8, [x0]
	ldr	x8, [x8, #40]
	b	LBB13_15
LBB13_14:
	ldr	x8, [x0]
	ldr	x8, [x8, #32]
LBB13_15:                               ; %_ZN8nlohmann6detail6parserINS_10basic_jsonINSt3__13mapENS3_6vectorENS3_12basic_stringIcNS3_11char_traitsIcEENS3_9allocatorIcEEEEbxydS9_NS_14adl_serializerENS5_IhNS9_IhEEEEEENS0_22iterator_input_adapterIPKcEEED1Ev.exit
	blr	x8
LBB13_16:                               ; %_ZN8nlohmann6detail6parserINS_10basic_jsonINSt3__13mapENS3_6vectorENS3_12basic_stringIcNS3_11char_traitsIcEENS3_9allocatorIcEEEEbxydS9_NS_14adl_serializerENS5_IhNS9_IhEEEEEENS0_22iterator_input_adapterIPKcEEED1Ev.exit
	ldr	x0, [sp, #48]
	add	x8, sp, #24
	cmp	x8, x0
	b.eq	LBB13_19
; %bb.17:
	cbz	x0, LBB13_21
; %bb.18:
	ldr	x8, [x0]
	ldr	x8, [x8, #40]
	b	LBB13_20
LBB13_19:
	ldr	x8, [x0]
	ldr	x8, [x8, #32]
LBB13_20:                               ; %_ZNSt3__18functionIFbiN8nlohmann6detail13parse_event_tERNS1_10basic_jsonINS_3mapENS_6vectorENS_12basic_stringIcNS_11char_traitsIcEENS_9allocatorIcEEEEbxydSA_NS1_14adl_serializerENS6_IhNSA_IhEEEEEEEED1Ev.exit
	blr	x8
LBB13_21:                               ; %_ZNSt3__18functionIFbiN8nlohmann6detail13parse_event_tERNS1_10basic_jsonINS_3mapENS_6vectorENS_12basic_stringIcNS_11char_traitsIcEENS_9allocatorIcEEEEbxydSA_NS1_14adl_serializerENS6_IhNSA_IhEEEEEEEED1Ev.exit
	ldur	x8, [x29, #-72]
Lloh31:
	adrp	x9, ___stack_chk_guard@GOTPAGE
Lloh32:
	ldr	x9, [x9, ___stack_chk_guard@GOTPAGEOFF]
Lloh33:
	ldr	x9, [x9]
	cmp	x9, x8
	b.ne	LBB13_23
; %bb.22:                               ; %_ZNSt3__18functionIFbiN8nlohmann6detail13parse_event_tERNS1_10basic_jsonINS_3mapENS_6vectorENS_12basic_stringIcNS_11char_traitsIcEENS_9allocatorIcEEEEbxydSA_NS1_14adl_serializerENS6_IhNSA_IhEEEEEEEED1Ev.exit
	ldp	x29, x30, [sp, #320]            ; 16-byte Folded Reload
	ldp	x20, x19, [sp, #304]            ; 16-byte Folded Reload
	ldp	x22, x21, [sp, #288]            ; 16-byte Folded Reload
	ldp	x24, x23, [sp, #272]            ; 16-byte Folded Reload
	ldp	x28, x27, [sp, #256]            ; 16-byte Folded Reload
	add	sp, sp, #336
	ret
LBB13_23:                               ; %_ZNSt3__18functionIFbiN8nlohmann6detail13parse_event_tERNS1_10basic_jsonINS_3mapENS_6vectorENS_12basic_stringIcNS_11char_traitsIcEENS_9allocatorIcEEEEbxydSA_NS1_14adl_serializerENS6_IhNSA_IhEEEEEEEED1Ev.exit
	bl	___stack_chk_fail
LBB13_24:
Ltmp115:
	mov	x20, x0
	b	LBB13_34
LBB13_25:
Ltmp121:
	mov	x20, x1
	mov	x21, x0
	ldrsb	w8, [sp, #199]
	tbz	w8, #31, LBB13_27
; %bb.26:
	ldr	x0, [sp, #176]
	bl	__ZdlPv
LBB13_27:                               ; %codeRepl
	add	x0, sp, #56
	add	x1, sp, #56
	add	x4, sp, #8
	mov	x2, x21
	mov	x3, x20
	bl	__ZN8nlohmann10basic_jsonINSt3__13mapENS1_6vectorENS1_12basic_stringIcNS1_11char_traitsIcEENS1_9allocatorIcEEEEbxydS7_NS_14adl_serializerENS3_IhNS7_IhEEEEE5parseIPKcEESD_OT_NS1_8functionIFbiNS_6detail13parse_event_tERSD_EEEbb.cold.1
	ldr	x20, [sp, #8]
	b	LBB13_29
LBB13_28:
Ltmp118:
	mov	x20, x0
LBB13_29:                               ; %_ZN8nlohmann6detail6parserINS_10basic_jsonINSt3__13mapENS3_6vectorENS3_12basic_stringIcNS3_11char_traitsIcEENS3_9allocatorIcEEEEbxydS9_NS_14adl_serializerENS5_IhNS9_IhEEEEEENS0_22iterator_input_adapterIPKcEEED1Ev.exit16
	ldr	x0, [sp, #48]
	add	x8, sp, #24
	cmp	x8, x0
	b.ne	LBB13_31
; %bb.30:
	ldr	x8, [x0]
	ldr	x8, [x8, #32]
	b	LBB13_33
LBB13_31:
	cbz	x0, LBB13_34
; %bb.32:
	ldr	x8, [x0]
	ldr	x8, [x8, #40]
LBB13_33:                               ; %_ZNSt3__18functionIFbiN8nlohmann6detail13parse_event_tERNS1_10basic_jsonINS_3mapENS_6vectorENS_12basic_stringIcNS_11char_traitsIcEENS_9allocatorIcEEEEbxydSA_NS1_14adl_serializerENS6_IhNSA_IhEEEEEEEED1Ev.exit18
	blr	x8
LBB13_34:                               ; %_ZNSt3__18functionIFbiN8nlohmann6detail13parse_event_tERNS1_10basic_jsonINS_3mapENS_6vectorENS_12basic_stringIcNS_11char_traitsIcEENS_9allocatorIcEEEEbxydSA_NS1_14adl_serializerENS6_IhNSA_IhEEEEEEEED1Ev.exit18
	mov	x0, x19
	mov	w1, #0
	bl	__ZNK8nlohmann10basic_jsonINSt3__13mapENS1_6vectorENS1_12basic_stringIcNS1_11char_traitsIcEENS1_9allocatorIcEEEEbxydS7_NS_14adl_serializerENS3_IhNS7_IhEEEEE16assert_invariantEb
	ldrb	w1, [x19], #8
Ltmp122:
	mov	x0, x19
	bl	__ZN8nlohmann10basic_jsonINSt3__13mapENS1_6vectorENS1_12basic_stringIcNS1_11char_traitsIcEENS1_9allocatorIcEEEEbxydS7_NS_14adl_serializerENS3_IhNS7_IhEEEEE10json_value7destroyENS_6detail7value_tE
Ltmp123:
; %bb.35:                               ; %_ZN8nlohmann10basic_jsonINSt3__13mapENS1_6vectorENS1_12basic_stringIcNS1_11char_traitsIcEENS1_9allocatorIcEEEEbxydS7_NS_14adl_serializerENS3_IhNS7_IhEEEEED1Ev.exit
	mov	x0, x20
	bl	__Unwind_Resume
LBB13_36:
Ltmp124:
	bl	___clang_call_terminate
	.loh AdrpLdrGotLdr	Lloh28, Lloh29, Lloh30
	.loh AdrpLdrGotLdr	Lloh31, Lloh32, Lloh33
Lfunc_end6:
	.cfi_endproc
	.section	__TEXT,__gcc_except_tab
	.p2align	2
GCC_except_table13:
Lexception6:
	.byte	255                             ; @LPStart Encoding = omit
	.byte	155                             ; @TType Encoding = indirect pcrel sdata4
	.uleb128 Lttbase4-Lttbaseref4
Lttbaseref4:
	.byte	1                               ; Call site Encoding = uleb128
	.uleb128 Lcst_end6-Lcst_begin6
Lcst_begin6:
	.uleb128 Ltmp111-Lfunc_begin6           ; >> Call Site 1 <<
	.uleb128 Ltmp114-Ltmp111                ;   Call between Ltmp111 and Ltmp114
	.uleb128 Ltmp115-Lfunc_begin6           ;     jumps to Ltmp115
	.byte	0                               ;   On action: cleanup
	.uleb128 Ltmp116-Lfunc_begin6           ; >> Call Site 2 <<
	.uleb128 Ltmp117-Ltmp116                ;   Call between Ltmp116 and Ltmp117
	.uleb128 Ltmp118-Lfunc_begin6           ;     jumps to Ltmp118
	.byte	0                               ;   On action: cleanup
	.uleb128 Ltmp119-Lfunc_begin6           ; >> Call Site 3 <<
	.uleb128 Ltmp120-Ltmp119                ;   Call between Ltmp119 and Ltmp120
	.uleb128 Ltmp121-Lfunc_begin6           ;     jumps to Ltmp121
	.byte	0                               ;   On action: cleanup
	.uleb128 Ltmp120-Lfunc_begin6           ; >> Call Site 4 <<
	.uleb128 Ltmp122-Ltmp120                ;   Call between Ltmp120 and Ltmp122
	.byte	0                               ;     has no landing pad
	.byte	0                               ;   On action: cleanup
	.uleb128 Ltmp122-Lfunc_begin6           ; >> Call Site 5 <<
	.uleb128 Ltmp123-Ltmp122                ;   Call between Ltmp122 and Ltmp123
	.uleb128 Ltmp124-Lfunc_begin6           ;     jumps to Ltmp124
	.byte	1                               ;   On action: 1
	.uleb128 Ltmp123-Lfunc_begin6           ; >> Call Site 6 <<
	.uleb128 Lfunc_end6-Ltmp123             ;   Call between Ltmp123 and Lfunc_end6
	.byte	0                               ;     has no landing pad
	.byte	0                               ;   On action: cleanup
Lcst_end6:
	.byte	1                               ; >> Action Record 1 <<
                                        ;   Catch TypeInfo 1
	.byte	0                               ;   No further actions
	.p2align	2
                                        ; >> Catch TypeInfos <<
	.long	0                               ; TypeInfo 1
Lttbase4:
	.p2align	2
                                        ; -- End function
	.section	__TEXT,__text,regular,pure_instructions
	.globl	__ZN8nlohmann10basic_jsonINSt3__13mapENS1_6vectorENS1_12basic_stringIcNS1_11char_traitsIcEENS1_9allocatorIcEEEEbxydS7_NS_14adl_serializerENS3_IhNS7_IhEEEEEixERKS9_ ; -- Begin function _ZN8nlohmann10basic_jsonINSt3__13mapENS1_6vectorENS1_12basic_stringIcNS1_11char_traitsIcEENS1_9allocatorIcEEEEbxydS7_NS_14adl_serializerENS3_IhNS7_IhEEEEEixERKS9_
	.weak_def_can_be_hidden	__ZN8nlohmann10basic_jsonINSt3__13mapENS1_6vectorENS1_12basic_stringIcNS1_11char_traitsIcEENS1_9allocatorIcEEEEbxydS7_NS_14adl_serializerENS3_IhNS7_IhEEEEEixERKS9_
	.p2align	2
__ZN8nlohmann10basic_jsonINSt3__13mapENS1_6vectorENS1_12basic_stringIcNS1_11char_traitsIcEENS1_9allocatorIcEEEEbxydS7_NS_14adl_serializerENS3_IhNS7_IhEEEEEixERKS9_: ; @_ZN8nlohmann10basic_jsonINSt3__13mapENS1_6vectorENS1_12basic_stringIcNS1_11char_traitsIcEENS1_9allocatorIcEEEEbxydS7_NS_14adl_serializerENS3_IhNS7_IhEEEEEixERKS9_
Lfunc_begin7:
	.cfi_startproc
	.cfi_personality 155, ___gxx_personality_v0
	.cfi_lsda 16, Lexception7
; %bb.0:
	sub	sp, sp, #128
	stp	x24, x23, [sp, #64]             ; 16-byte Folded Spill
	stp	x22, x21, [sp, #80]             ; 16-byte Folded Spill
	stp	x20, x19, [sp, #96]             ; 16-byte Folded Spill
	stp	x29, x30, [sp, #112]            ; 16-byte Folded Spill
	add	x29, sp, #112
	.cfi_def_cfa w29, 16
	.cfi_offset w30, -8
	.cfi_offset w29, -16
	.cfi_offset w19, -24
	.cfi_offset w20, -32
	.cfi_offset w21, -40
	.cfi_offset w22, -48
	.cfi_offset w23, -56
	.cfi_offset w24, -64
	mov	x19, x1
	mov	x20, x0
	ldrb	w8, [x0]
	cbnz	w8, LBB14_2
; %bb.1:
	mov	w8, #1
	strb	w8, [x20]
	mov	w0, #24
	bl	__Znwm
	str	xzr, [x0, #16]
	mov	x8, x0
	str	xzr, [x8, #8]!
	str	x8, [x0]
	str	x0, [x20, #8]
	mov	x0, x20
	mov	w1, #1
	bl	__ZNK8nlohmann10basic_jsonINSt3__13mapENS1_6vectorENS1_12basic_stringIcNS1_11char_traitsIcEENS1_9allocatorIcEEEEbxydS7_NS_14adl_serializerENS3_IhNS7_IhEEEEE16assert_invariantEb
	ldrb	w8, [x20]
LBB14_2:
	cmp	w8, #1
	b.ne	LBB14_4
; %bb.3:
	ldr	x0, [x20, #8]
	str	x19, [sp, #32]
Lloh34:
	adrp	x2, __ZNSt3__1L19piecewise_constructE@PAGE
Lloh35:
	add	x2, x2, __ZNSt3__1L19piecewise_constructE@PAGEOFF
	add	x3, sp, #32
	add	x4, sp, #8
	mov	x1, x19
	bl	__ZNSt3__16__treeINS_12__value_typeINS_12basic_stringIcNS_11char_traitsIcEENS_9allocatorIcEEEEN8nlohmann10basic_jsonINS_3mapENS_6vectorES7_bxydS5_NS8_14adl_serializerENSB_IhNS5_IhEEEEEEEENS_19__map_value_compareIS7_SG_NS_4lessIS7_EELb1EEENS5_ISG_EEE25__emplace_unique_key_argsIS7_JRKNS_21piecewise_construct_tENS_5tupleIJRKS7_EEENSR_IJEEEEEENS_4pairINS_15__tree_iteratorISG_PNS_11__tree_nodeISG_PvEElEEbEERKT_DpOT0_
	add	x0, x0, #56
	ldp	x29, x30, [sp, #112]            ; 16-byte Folded Reload
	ldp	x20, x19, [sp, #96]             ; 16-byte Folded Reload
	ldp	x22, x21, [sp, #80]             ; 16-byte Folded Reload
	ldp	x24, x23, [sp, #64]             ; 16-byte Folded Reload
	add	sp, sp, #128
	ret
LBB14_4:
	mov	w0, #32
	bl	___cxa_allocate_exception
	mov	x19, x0
	ldrsb	x8, [x20]
	cmp	x8, #9
	b.hi	LBB14_6
; %bb.5:                                ; %switch.lookup
Lloh36:
	adrp	x9, l_switch.table._ZN8nlohmann6detail20get_arithmetic_valueINS_10basic_jsonINSt3__13mapENS3_6vectorENS3_12basic_stringIcNS3_11char_traitsIcEENS3_9allocatorIcEEEEbxydS9_NS_14adl_serializerENS5_IhNS9_IhEEEEEEdLi0EEEvRKT_RT0_@PAGE
Lloh37:
	add	x9, x9, l_switch.table._ZN8nlohmann6detail20get_arithmetic_valueINS_10basic_jsonINSt3__13mapENS3_6vectorENS3_12basic_stringIcNS3_11char_traitsIcEENS3_9allocatorIcEEEEbxydS9_NS_14adl_serializerENS5_IhNS9_IhEEEEEEdLi0EEEvRKT_RT0_@PAGEOFF
	ldr	x21, [x9, x8, lsl #3]
	b	LBB14_7
LBB14_6:
Lloh38:
	adrp	x21, l_.str.111@PAGE
Lloh39:
	add	x21, x21, l_.str.111@PAGEOFF
LBB14_7:                                ; %_ZNK8nlohmann10basic_jsonINSt3__13mapENS1_6vectorENS1_12basic_stringIcNS1_11char_traitsIcEENS1_9allocatorIcEEEEbxydS7_NS_14adl_serializerENS3_IhNS7_IhEEEEE9type_nameEv.exit
	mov	x0, x21
	bl	_strlen
	cmn	x0, #16
	b.lo	LBB14_9
; %bb.8:
Ltmp135:
	add	x0, sp, #8
	bl	__ZNKSt3__112basic_stringIcNS_11char_traitsIcEENS_9allocatorIcEEE20__throw_length_errorEv
Ltmp136:
	b	LBB14_17
LBB14_9:
	mov	x22, x0
	cmp	x0, #23
	b.hs	LBB14_11
; %bb.10:
	add	x0, sp, #8
	strb	w22, [sp, #31]
	cbnz	x22, LBB14_13
	b	LBB14_14
LBB14_11:                               ; %.thread.i.i.i
	add	x8, x22, #16
	and	x23, x8, #0xfffffffffffffff0
Ltmp125:
	mov	x0, x23
	bl	__Znwm
Ltmp126:
; %bb.12:                               ; %.noexc11
	orr	x8, x23, #0x8000000000000000
	stp	x22, x8, [sp, #16]
	str	x0, [sp, #8]
LBB14_13:
	mov	x23, x0
	mov	x1, x21
	mov	x2, x22
	bl	_memcpy
	mov	x0, x23
LBB14_14:
	strb	wzr, [x0, x22]
Ltmp127:
Lloh40:
	adrp	x2, l_.str.142@PAGE
Lloh41:
	add	x2, x2, l_.str.142@PAGEOFF
	add	x0, sp, #8
	mov	x1, #0
	bl	__ZNSt3__112basic_stringIcNS_11char_traitsIcEENS_9allocatorIcEEE6insertEmPKc
Ltmp128:
; %bb.15:
	ldr	q0, [x0]
	ldr	x8, [x0, #16]
	str	x8, [sp, #48]
	str	q0, [sp, #32]
	stp	xzr, xzr, [x0, #8]
	str	xzr, [x0]
	mov	w21, #1
Ltmp130:
	add	x1, sp, #32
	mov	x8, x19
	mov	w0, #305
	mov	x2, x20
	bl	__ZN8nlohmann6detail10type_error6createINS_10basic_jsonINSt3__13mapENS4_6vectorENS4_12basic_stringIcNS4_11char_traitsIcEENS4_9allocatorIcEEEEbxydSA_NS_14adl_serializerENS6_IhNSA_IhEEEEEEEES1_iRKSC_RKT_
Ltmp131:
; %bb.16:
Ltmp132:
	mov	w21, #0
Lloh42:
	adrp	x1, __ZTIN8nlohmann6detail10type_errorE@PAGE
Lloh43:
	add	x1, x1, __ZTIN8nlohmann6detail10type_errorE@PAGEOFF
Lloh44:
	adrp	x2, __ZN8nlohmann6detail10type_errorD1Ev@GOTPAGE
Lloh45:
	ldr	x2, [x2, __ZN8nlohmann6detail10type_errorD1Ev@GOTPAGEOFF]
	mov	x0, x19
	bl	___cxa_throw
Ltmp133:
LBB14_17:                               ; %.noexc
	brk	#0x1
LBB14_18:
Ltmp134:
	mov	x20, x0
	ldrsb	w8, [sp, #55]
	tbz	w8, #31, LBB14_21
; %bb.19:
	ldr	x0, [sp, #32]
	bl	__ZdlPv
	b	LBB14_21
LBB14_20:
Ltmp129:
	mov	x20, x0
	mov	w21, #1
LBB14_21:                               ; %_ZNSt3__112basic_stringIcNS_11char_traitsIcEENS_9allocatorIcEEED1Ev.exit10
	ldrsb	w8, [sp, #31]
	tbz	w8, #31, LBB14_23
; %bb.22:
	ldr	x0, [sp, #8]
	bl	__ZdlPv
	tbnz	w21, #0, LBB14_25
	b	LBB14_26
LBB14_23:                               ; %_ZNSt3__112basic_stringIcNS_11char_traitsIcEENS_9allocatorIcEEED1Ev.exit
	cbnz	w21, LBB14_25
	b	LBB14_26
LBB14_24:                               ; %_ZNSt3__112basic_stringIcNS_11char_traitsIcEENS_9allocatorIcEEED1Ev.exit.thread
Ltmp137:
	mov	x20, x0
LBB14_25:
	mov	x0, x19
	bl	___cxa_free_exception
LBB14_26:
	mov	x0, x20
	bl	__Unwind_Resume
	.loh AdrpAdd	Lloh34, Lloh35
	.loh AdrpAdd	Lloh36, Lloh37
	.loh AdrpAdd	Lloh38, Lloh39
	.loh AdrpAdd	Lloh40, Lloh41
	.loh AdrpLdrGot	Lloh44, Lloh45
	.loh AdrpAdd	Lloh42, Lloh43
Lfunc_end7:
	.cfi_endproc
	.section	__TEXT,__gcc_except_tab
	.p2align	2
GCC_except_table14:
Lexception7:
	.byte	255                             ; @LPStart Encoding = omit
	.byte	255                             ; @TType Encoding = omit
	.byte	1                               ; Call site Encoding = uleb128
	.uleb128 Lcst_end7-Lcst_begin7
Lcst_begin7:
	.uleb128 Lfunc_begin7-Lfunc_begin7      ; >> Call Site 1 <<
	.uleb128 Ltmp135-Lfunc_begin7           ;   Call between Lfunc_begin7 and Ltmp135
	.byte	0                               ;     has no landing pad
	.byte	0                               ;   On action: cleanup
	.uleb128 Ltmp135-Lfunc_begin7           ; >> Call Site 2 <<
	.uleb128 Ltmp126-Ltmp135                ;   Call between Ltmp135 and Ltmp126
	.uleb128 Ltmp137-Lfunc_begin7           ;     jumps to Ltmp137
	.byte	0                               ;   On action: cleanup
	.uleb128 Ltmp126-Lfunc_begin7           ; >> Call Site 3 <<
	.uleb128 Ltmp127-Ltmp126                ;   Call between Ltmp126 and Ltmp127
	.byte	0                               ;     has no landing pad
	.byte	0                               ;   On action: cleanup
	.uleb128 Ltmp127-Lfunc_begin7           ; >> Call Site 4 <<
	.uleb128 Ltmp128-Ltmp127                ;   Call between Ltmp127 and Ltmp128
	.uleb128 Ltmp129-Lfunc_begin7           ;     jumps to Ltmp129
	.byte	0                               ;   On action: cleanup
	.uleb128 Ltmp130-Lfunc_begin7           ; >> Call Site 5 <<
	.uleb128 Ltmp133-Ltmp130                ;   Call between Ltmp130 and Ltmp133
	.uleb128 Ltmp134-Lfunc_begin7           ;     jumps to Ltmp134
	.byte	0                               ;   On action: cleanup
	.uleb128 Ltmp133-Lfunc_begin7           ; >> Call Site 6 <<
	.uleb128 Lfunc_end7-Ltmp133             ;   Call between Ltmp133 and Lfunc_end7
	.byte	0                               ;     has no landing pad
	.byte	0                               ;   On action: cleanup
Lcst_end7:
	.p2align	2
                                        ; -- End function
	.section	__TEXT,__text,regular,pure_instructions
	.globl	__ZN9ActionSet12action_cleanERKNSt3__16vectorINS1_IiNS0_9allocatorIiEEEENS2_IS4_EEEE8Positionii ; -- Begin function _ZN9ActionSet12action_cleanERKNSt3__16vectorINS1_IiNS0_9allocatorIiEEEENS2_IS4_EEEE8Positionii
	.p2align	2
__ZN9ActionSet12action_cleanERKNSt3__16vectorINS1_IiNS0_9allocatorIiEEEENS2_IS4_EEEE8Positionii: ; @_ZN9ActionSet12action_cleanERKNSt3__16vectorINS1_IiNS0_9allocatorIiEEEENS2_IS4_EEEE8Positionii
Lfunc_begin8:
	.cfi_startproc
	.cfi_personality 155, ___gxx_personality_v0
	.cfi_lsda 16, Lexception8
; %bb.0:
	sub	sp, sp, #176
	stp	x28, x27, [sp, #80]             ; 16-byte Folded Spill
	stp	x26, x25, [sp, #96]             ; 16-byte Folded Spill
	stp	x24, x23, [sp, #112]            ; 16-byte Folded Spill
	stp	x22, x21, [sp, #128]            ; 16-byte Folded Spill
	stp	x20, x19, [sp, #144]            ; 16-byte Folded Spill
	stp	x29, x30, [sp, #160]            ; 16-byte Folded Spill
	add	x29, sp, #160
	.cfi_def_cfa w29, 16
	.cfi_offset w30, -8
	.cfi_offset w29, -16
	.cfi_offset w19, -24
	.cfi_offset w20, -32
	.cfi_offset w21, -40
	.cfi_offset w22, -48
	.cfi_offset w23, -56
	.cfi_offset w24, -64
	.cfi_offset w25, -72
	.cfi_offset w26, -80
	.cfi_offset w27, -88
	.cfi_offset w28, -96
	mov	x19, x8
	stp	xzr, xzr, [x8]
	str	xzr, [x8, #16]
	ldp	x28, x8, [x1]
	cmp	x28, x8
	b.hs	LBB15_61
; %bb.1:                                ; %.lr.ph.preheader
	mov	x21, x2
	mov	x22, x1
	mov	x20, #0
	lsr	x25, x2, #32
	sub	w9, w3, #1
	sub	w8, w4, #1
	stp	w8, w9, [sp, #48]               ; 8-byte Folded Spill
	str	x19, [sp, #24]                  ; 8-byte Folded Spill
	str	x25, [sp, #40]                  ; 8-byte Folded Spill
	stp	x1, x2, [sp]                    ; 16-byte Folded Spill
	b	LBB15_3
LBB15_2:                                ; %_ZNSt3__16vectorIiNS_9allocatorIiEEED1Ev.exit
                                        ;   in Loop: Header=BB15_3 Depth=1
	add	x28, x28, #24
	ldr	x8, [x22, #8]
	cmp	x28, x8
	b.hs	LBB15_61
LBB15_3:                                ; %.lr.ph
                                        ; =>This Loop Header: Depth=1
                                        ;     Child Loop BB15_50 Depth 2
                                        ;     Child Loop BB15_54 Depth 2
	stp	xzr, xzr, [sp, #56]
	str	xzr, [sp, #72]
	ldp	x8, x9, [x28]
	subs	x24, x9, x8
	b.eq	LBB15_8
; %bb.4:                                ;   in Loop: Header=BB15_3 Depth=1
	tbnz	x24, #63, LBB15_62
; %bb.5:                                ; %_ZNSt3__116allocator_traitsINS_9allocatorIiEEE8allocateERS2_m.exit.i.i.i
                                        ;   in Loop: Header=BB15_3 Depth=1
Ltmp138:
	mov	x0, x24
	bl	__Znwm
Ltmp139:
; %bb.6:                                ;   in Loop: Header=BB15_3 Depth=1
	mov	x23, x0
	asr	x8, x24, #2
	add	x8, x0, x8, lsl #2
	str	x0, [sp, #56]
	str	x8, [sp, #72]
	ldp	x1, x8, [x28]
	sub	x24, x8, x1
	cmp	x24, #1
	b.lt	LBB15_13
; %bb.7:                                ;   in Loop: Header=BB15_3 Depth=1
	mov	x0, x23
	mov	x2, x24
	bl	_memcpy
	add	x26, x23, x24
	b	LBB15_14
LBB15_8:                                ;   in Loop: Header=BB15_3 Depth=1
	mov	x23, #0
	mov	x26, #0
	cbnz	w21, LBB15_15
LBB15_9:                                ;   in Loop: Header=BB15_3 Depth=1
	ldr	w8, [x23]
	cmn	w8, #1
	b.eq	LBB15_37
; %bb.10:                               ;   in Loop: Header=BB15_3 Depth=1
	cbnz	w8, LBB15_20
; %bb.11:                               ;   in Loop: Header=BB15_3 Depth=1
	ldr	w8, [x23, #8]
	cmp	w8, #1
	b.eq	LBB15_37
; %bb.12:                               ;   in Loop: Header=BB15_3 Depth=1
	cmp	w8, #7
	b.eq	LBB15_37
	b	LBB15_20
LBB15_13:                               ;   in Loop: Header=BB15_3 Depth=1
	mov	x26, x23
LBB15_14:                               ; %_ZNSt3__16vectorIiNS_9allocatorIiEEE18__construct_at_endIPiEENS_9enable_ifIXsr27__is_cpp17_forward_iteratorIT_EE5valueEvE4typeES7_S7_m.exit.i.i
                                        ;   in Loop: Header=BB15_3 Depth=1
	str	x26, [sp, #64]
	cbz	w21, LBB15_9
LBB15_15:                               ;   in Loop: Header=BB15_3 Depth=1
	ldr	w8, [sp, #52]                   ; 4-byte Folded Reload
	cmp	w8, w21
	b.ne	LBB15_20
; %bb.16:                               ;   in Loop: Header=BB15_3 Depth=1
	ldr	w8, [x23]
	cmp	w8, #1
	b.eq	LBB15_37
; %bb.17:                               ;   in Loop: Header=BB15_3 Depth=1
	cbnz	w8, LBB15_20
; %bb.18:                               ;   in Loop: Header=BB15_3 Depth=1
	ldr	w8, [x23, #8]
	cmp	w8, #3
	b.eq	LBB15_37
; %bb.19:                               ;   in Loop: Header=BB15_3 Depth=1
	cmp	w8, #5
	b.eq	LBB15_37
LBB15_20:                               ;   in Loop: Header=BB15_3 Depth=1
	cbz	w25, LBB15_26
; %bb.21:                               ;   in Loop: Header=BB15_3 Depth=1
	ldr	w8, [sp, #48]                   ; 4-byte Folded Reload
	cmp	w8, w25
	b.ne	LBB15_29
; %bb.22:                               ;   in Loop: Header=BB15_3 Depth=1
	ldr	w8, [x23, #4]
	cmp	w8, #1
	b.eq	LBB15_37
; %bb.23:                               ;   in Loop: Header=BB15_3 Depth=1
	cbnz	w8, LBB15_29
; %bb.24:                               ;   in Loop: Header=BB15_3 Depth=1
	ldr	w8, [x23, #8]
	cmp	w8, #4
	b.eq	LBB15_37
; %bb.25:                               ;   in Loop: Header=BB15_3 Depth=1
	cmp	w8, #7
	b.eq	LBB15_37
	b	LBB15_29
LBB15_26:                               ;   in Loop: Header=BB15_3 Depth=1
	ldr	w8, [x23, #4]
	cmn	w8, #1
	b.eq	LBB15_37
; %bb.27:                               ;   in Loop: Header=BB15_3 Depth=1
	cbnz	w8, LBB15_29
; %bb.28:                               ;   in Loop: Header=BB15_3 Depth=1
	ldr	w8, [x23, #8]
	orr	w8, w8, #0x2
	cmp	w8, #3
	b.eq	LBB15_37
LBB15_29:                               ;   in Loop: Header=BB15_3 Depth=1
	ldr	x8, [x19, #16]
	cmp	x20, x8
	b.eq	LBB15_39
; %bb.30:                               ;   in Loop: Header=BB15_3 Depth=1
	stp	xzr, xzr, [x20]
	str	xzr, [x20, #16]
	subs	x25, x26, x23
	b.eq	LBB15_36
; %bb.31:                               ;   in Loop: Header=BB15_3 Depth=1
	tbnz	x25, #63, LBB15_63
; %bb.32:                               ; %_ZNSt3__116allocator_traitsINS_9allocatorIiEEE8allocateERS2_m.exit.i.i.i.i.i.i9.i
                                        ;   in Loop: Header=BB15_3 Depth=1
Ltmp144:
	mov	x0, x25
	bl	__Znwm
Ltmp145:
; %bb.33:                               ;   in Loop: Header=BB15_3 Depth=1
	mov	x24, x0
	asr	x8, x25, #2
	stp	x0, x0, [x20]
	add	x8, x0, x8, lsl #2
	str	x8, [x20, #16]
	ldp	x1, x8, [sp, #56]
	sub	x23, x8, x1
	cmp	x23, #1
	b.lt	LBB15_35
; %bb.34:                               ;   in Loop: Header=BB15_3 Depth=1
	mov	x0, x24
	mov	x2, x23
	bl	_memcpy
	add	x24, x24, x23
LBB15_35:                               ; %_ZNSt3__16vectorIiNS_9allocatorIiEEE18__construct_at_endIPiEENS_9enable_ifIXsr27__is_cpp17_forward_iteratorIT_EE5valueEvE4typeES7_S7_m.exit.i.i.i.i.i10.i
                                        ;   in Loop: Header=BB15_3 Depth=1
	str	x24, [x20, #8]
LBB15_36:                               ; %_ZNSt3__16vectorINS0_IiNS_9allocatorIiEEEENS1_IS3_EEE22__construct_one_at_endIJRKS3_EEEvDpOT_.exit.i
                                        ;   in Loop: Header=BB15_3 Depth=1
	add	x20, x20, #24
	str	x20, [x19, #8]
	ldr	x25, [sp, #40]                  ; 8-byte Folded Reload
LBB15_37:                               ; %_ZNSt3__16vectorINS0_IiNS_9allocatorIiEEEENS1_IS3_EEE9push_backERKS3_.exit
                                        ;   in Loop: Header=BB15_3 Depth=1
	ldr	x0, [sp, #56]
	cbz	x0, LBB15_2
LBB15_38:                               ;   in Loop: Header=BB15_3 Depth=1
	bl	__ZdlPv
	b	LBB15_2
LBB15_39:                               ;   in Loop: Header=BB15_3 Depth=1
	ldr	x19, [x19]
	sub	x8, x20, x19
	asr	x8, x8, #3
	mov	x9, #-6148914691236517206
	movk	x9, #43691
	mul	x22, x8, x9
	add	x8, x22, #1
	mov	x10, #-6148914691236517206
	movk	x10, #2730, lsl #48
	cmp	x8, x10
	b.hi	LBB15_64
; %bb.40:                               ; %_ZNKSt3__16vectorINS0_IiNS_9allocatorIiEEEENS1_IS3_EEE11__recommendEm.exit.i.i
                                        ;   in Loop: Header=BB15_3 Depth=1
	lsl	x9, x22, #1
	cmp	x9, x8
	csel	x8, x8, x9, lo
	mov	x9, #6148914691236517205
	movk	x9, #1365, lsl #48
	cmp	x22, x9
	csel	x21, x8, x10, lo
	str	x21, [sp, #32]                  ; 8-byte Folded Spill
	cbz	x21, LBB15_43
; %bb.41:                               ;   in Loop: Header=BB15_3 Depth=1
	cmp	x21, x10
	b.hi	LBB15_65
; %bb.42:                               ; %_ZNSt3__116allocator_traitsINS_9allocatorINS_6vectorIiNS1_IiEEEEEEE8allocateERS5_m.exit.i.i.i.i
                                        ;   in Loop: Header=BB15_3 Depth=1
	add	x8, x21, x21, lsl #1
	lsl	x0, x8, #3
Ltmp150:
	bl	__Znwm
Ltmp151:
	b	LBB15_44
LBB15_43:                               ;   in Loop: Header=BB15_3 Depth=1
	mov	x0, #0
LBB15_44:                               ; %_ZNSt3__114__split_bufferINS_6vectorIiNS_9allocatorIiEEEERNS2_IS4_EEEC1EmmS6_.exit.i.i
                                        ;   in Loop: Header=BB15_3 Depth=1
	mov	w25, #24
	mov	x21, x0
	madd	x24, x22, x25, x0
	stp	xzr, xzr, [x24]
	str	xzr, [x24, #16]
	subs	x26, x26, x23
	b.eq	LBB15_48
; %bb.45:                               ;   in Loop: Header=BB15_3 Depth=1
	str	x21, [sp, #16]                  ; 8-byte Folded Spill
	tbnz	x26, #63, LBB15_66
; %bb.46:                               ; %_ZNSt3__116allocator_traitsINS_9allocatorIiEEE8allocateERS2_m.exit.i.i.i.i.i.i.i
                                        ;   in Loop: Header=BB15_3 Depth=1
Ltmp155:
	mov	x0, x26
	bl	__Znwm
Ltmp156:
; %bb.47:                               ; %_ZNSt3__16vectorIiNS_9allocatorIiEEE18__construct_at_endIPiEENS_9enable_ifIXsr27__is_cpp17_forward_iteratorIT_EE5valueEvE4typeES7_S7_m.exit.i.i.i.i.i.i
                                        ;   in Loop: Header=BB15_3 Depth=1
	mov	x27, x0
	asr	x8, x26, #2
	mov	w25, #24
	ldr	x21, [sp, #16]                  ; 8-byte Folded Reload
	madd	x22, x22, x25, x21
	str	x0, [x24]
	add	x8, x0, x8, lsl #2
	str	x8, [x22, #16]
	mov	x1, x23
	mov	x2, x26
	bl	_memcpy
	add	x8, x27, x26
	str	x8, [x22, #8]
LBB15_48:                               ; %_ZNSt3__116allocator_traitsINS_9allocatorINS_6vectorIiNS1_IiEEEEEEE9constructIS4_JRKS4_EvEEvRS5_PT_DpOT0_.exit.i.i
                                        ;   in Loop: Header=BB15_3 Depth=1
	ldr	x8, [sp, #32]                   ; 8-byte Folded Reload
	madd	x8, x8, x25, x21
	add	x22, x24, #24
	cmp	x20, x19
	b.eq	LBB15_60
; %bb.49:                               ;   in Loop: Header=BB15_3 Depth=1
	ldr	x21, [sp, #8]                   ; 8-byte Folded Reload
	ldr	x25, [sp, #40]                  ; 8-byte Folded Reload
LBB15_50:                               ; %.lr.ph.i.i.i.i
                                        ;   Parent Loop BB15_3 Depth=1
                                        ; =>  This Inner Loop Header: Depth=2
	mov	x9, x24
	stp	xzr, xzr, [x24, #-16]
	ldr	x10, [x20, #-24]!
	str	x10, [x24, #-24]!
	ldr	x10, [x20, #8]
	stur	x10, [x9, #-16]
	ldr	x10, [x20, #16]
	stur	x10, [x9, #-8]
	stp	xzr, xzr, [x20]
	str	xzr, [x20, #16]
	cmp	x20, x19
	b.ne	LBB15_50
; %bb.51:                               ;   in Loop: Header=BB15_3 Depth=1
	ldr	x19, [sp, #24]                  ; 8-byte Folded Reload
	ldp	x20, x9, [x19]
	stp	x24, x22, [x19]
	str	x8, [x19, #16]
	cmp	x9, x20
	b.eq	LBB15_57
; %bb.52:                               ; %.lr.ph.i.i.i.i.i12.i.i.preheader
                                        ;   in Loop: Header=BB15_3 Depth=1
	mov	x19, x9
	b	LBB15_54
LBB15_53:                               ; %_ZNSt3__116allocator_traitsINS_9allocatorINS_6vectorIiNS1_IiEEEEEEE7destroyIS4_vEEvRS5_PT_.exit.i.i.i.i.i15.i.i
                                        ;   in Loop: Header=BB15_54 Depth=2
	mov	x9, x19
	cmp	x19, x20
	b.eq	LBB15_56
LBB15_54:                               ; %.lr.ph.i.i.i.i.i12.i.i
                                        ;   Parent Loop BB15_3 Depth=1
                                        ; =>  This Inner Loop Header: Depth=2
	ldr	x0, [x19, #-24]!
	cbz	x0, LBB15_53
; %bb.55:                               ;   in Loop: Header=BB15_54 Depth=2
	stur	x0, [x9, #-16]
	bl	__ZdlPv
	b	LBB15_53
LBB15_56:                               ;   in Loop: Header=BB15_3 Depth=1
	ldr	x19, [sp, #24]                  ; 8-byte Folded Reload
LBB15_57:                               ; %_ZNSt3__114__split_bufferINS_6vectorIiNS_9allocatorIiEEEERNS2_IS4_EEE5clearEv.exit.i.i17.i.i
                                        ;   in Loop: Header=BB15_3 Depth=1
	cbz	x20, LBB15_59
LBB15_58:                               ;   in Loop: Header=BB15_3 Depth=1
	mov	x0, x20
	bl	__ZdlPv
LBB15_59:                               ;   in Loop: Header=BB15_3 Depth=1
	mov	x20, x22
	ldr	x22, [sp]                       ; 8-byte Folded Reload
	ldr	x0, [sp, #56]
	cbnz	x0, LBB15_38
	b	LBB15_2
LBB15_60:                               ; %.thread.i.i
                                        ;   in Loop: Header=BB15_3 Depth=1
	ldr	x19, [sp, #24]                  ; 8-byte Folded Reload
	stp	x24, x22, [x19]
	str	x8, [x19, #16]
	ldr	x21, [sp, #8]                   ; 8-byte Folded Reload
	ldr	x25, [sp, #40]                  ; 8-byte Folded Reload
	cbnz	x20, LBB15_58
	b	LBB15_59
LBB15_61:                               ; %._crit_edge
	ldp	x29, x30, [sp, #160]            ; 16-byte Folded Reload
	ldp	x20, x19, [sp, #144]            ; 16-byte Folded Reload
	ldp	x22, x21, [sp, #128]            ; 16-byte Folded Reload
	ldp	x24, x23, [sp, #112]            ; 16-byte Folded Reload
	ldp	x26, x25, [sp, #96]             ; 16-byte Folded Reload
	ldp	x28, x27, [sp, #80]             ; 16-byte Folded Reload
	add	sp, sp, #176
	ret
LBB15_62:
Ltmp141:
	add	x0, sp, #56
	bl	__ZNKSt3__113__vector_baseIiNS_9allocatorIiEEE20__throw_length_errorEv
Ltmp142:
	b	LBB15_67
LBB15_63:
Ltmp147:
	mov	x0, x20
	bl	__ZNKSt3__113__vector_baseIiNS_9allocatorIiEEE20__throw_length_errorEv
Ltmp148:
	b	LBB15_67
LBB15_64:
Ltmp161:
	ldr	x0, [sp, #24]                   ; 8-byte Folded Reload
	bl	__ZNKSt3__113__vector_baseINS_6vectorIiNS_9allocatorIiEEEENS2_IS4_EEE20__throw_length_errorEv
Ltmp162:
	b	LBB15_67
LBB15_65:
Ltmp153:
	bl	__ZNSt3__1L20__throw_length_errorEPKc
Ltmp154:
	b	LBB15_67
LBB15_66:
Ltmp158:
	mov	x0, x24
	bl	__ZNKSt3__113__vector_baseIiNS_9allocatorIiEEE20__throw_length_errorEv
Ltmp159:
LBB15_67:                               ; %.noexc.i.i
	brk	#0x1
LBB15_68:                               ; %.loopexit.split-lp59
Ltmp160:
	b	LBB15_70
LBB15_69:                               ; %.loopexit58
Ltmp157:
LBB15_70:
	mov	x21, x0
	ldr	x0, [x24]
	cbz	x0, LBB15_72
; %bb.71:
	mov	w8, #24
	ldr	x9, [sp, #16]                   ; 8-byte Folded Reload
	madd	x8, x22, x8, x9
	str	x0, [x8, #8]
	bl	__ZdlPv
LBB15_72:                               ; %_ZNSt3__114__split_bufferINS_6vectorIiNS_9allocatorIiEEEERNS2_IS4_EEE5clearEv.exit.i.i.thread.i.i
	ldr	x0, [sp, #16]                   ; 8-byte Folded Reload
	bl	__ZdlPv
	b	LBB15_81
LBB15_73:                               ; %.loopexit53
Ltmp152:
	b	LBB15_80
LBB15_74:                               ; %.loopexit48
Ltmp146:
	b	LBB15_76
LBB15_75:                               ; %.loopexit.split-lp49
Ltmp149:
LBB15_76:
	mov	x21, x0
	ldr	x0, [x20]
	cbz	x0, LBB15_78
; %bb.77:
	str	x0, [x20, #8]
	bl	__ZdlPv
LBB15_78:                               ; %.body.i.i
	ldr	x8, [sp, #24]                   ; 8-byte Folded Reload
	str	x20, [x8, #8]
	b	LBB15_81
LBB15_79:                               ; %.loopexit.split-lp54
Ltmp163:
LBB15_80:                               ; %.body
	mov	x21, x0
LBB15_81:                               ; %.body
	cbz	x23, LBB15_86
; %bb.82:
	mov	x0, x23
	bl	__ZdlPv
	b	LBB15_86
LBB15_83:
Ltmp143:
	mov	x21, x0
	ldr	x0, [sp, #56]
	cbz	x0, LBB15_86
; %bb.84:
	str	x0, [sp, #64]
	bl	__ZdlPv
	b	LBB15_86
LBB15_85:                               ; %.thread
Ltmp140:
	mov	x21, x0
LBB15_86:                               ; %.body37
	ldr	x8, [sp, #24]                   ; 8-byte Folded Reload
	ldr	x19, [x8]
	cbz	x19, LBB15_94
; %bb.87:
	ldr	x8, [sp, #24]                   ; 8-byte Folded Reload
	ldr	x8, [x8, #8]
	mov	x0, x19
	cmp	x8, x19
	b.eq	LBB15_93
; %bb.88:                               ; %.lr.ph.i.i.i.i.i.preheader
	mov	x20, x8
	b	LBB15_90
LBB15_89:                               ; %_ZNSt3__116allocator_traitsINS_9allocatorINS_6vectorIiNS1_IiEEEEEEE7destroyIS4_vEEvRS5_PT_.exit.i.i.i.i.i
                                        ;   in Loop: Header=BB15_90 Depth=1
	mov	x8, x20
	cmp	x20, x19
	b.eq	LBB15_92
LBB15_90:                               ; %.lr.ph.i.i.i.i.i
                                        ; =>This Inner Loop Header: Depth=1
	ldr	x0, [x20, #-24]!
	cbz	x0, LBB15_89
; %bb.91:                               ;   in Loop: Header=BB15_90 Depth=1
	stur	x0, [x8, #-16]
	bl	__ZdlPv
	b	LBB15_89
LBB15_92:                               ; %_ZNSt3__113__vector_baseINS_6vectorIiNS_9allocatorIiEEEENS2_IS4_EEE5clearEv.exit.loopexit.i.i.i
	ldr	x8, [sp, #24]                   ; 8-byte Folded Reload
	ldr	x0, [x8]
LBB15_93:                               ; %_ZNSt3__113__vector_baseINS_6vectorIiNS_9allocatorIiEEEENS2_IS4_EEE5clearEv.exit.i.i.i
	ldr	x8, [sp, #24]                   ; 8-byte Folded Reload
	str	x19, [x8, #8]
	bl	__ZdlPv
LBB15_94:                               ; %_ZNSt3__16vectorINS0_IiNS_9allocatorIiEEEENS1_IS3_EEED1Ev.exit
	mov	x0, x21
	bl	__Unwind_Resume
Lfunc_end8:
	.cfi_endproc
	.section	__TEXT,__gcc_except_tab
	.p2align	2
GCC_except_table15:
Lexception8:
	.byte	255                             ; @LPStart Encoding = omit
	.byte	255                             ; @TType Encoding = omit
	.byte	1                               ; Call site Encoding = uleb128
	.uleb128 Lcst_end8-Lcst_begin8
Lcst_begin8:
	.uleb128 Ltmp138-Lfunc_begin8           ; >> Call Site 1 <<
	.uleb128 Ltmp139-Ltmp138                ;   Call between Ltmp138 and Ltmp139
	.uleb128 Ltmp140-Lfunc_begin8           ;     jumps to Ltmp140
	.byte	0                               ;   On action: cleanup
	.uleb128 Ltmp139-Lfunc_begin8           ; >> Call Site 2 <<
	.uleb128 Ltmp144-Ltmp139                ;   Call between Ltmp139 and Ltmp144
	.byte	0                               ;     has no landing pad
	.byte	0                               ;   On action: cleanup
	.uleb128 Ltmp144-Lfunc_begin8           ; >> Call Site 3 <<
	.uleb128 Ltmp145-Ltmp144                ;   Call between Ltmp144 and Ltmp145
	.uleb128 Ltmp146-Lfunc_begin8           ;     jumps to Ltmp146
	.byte	0                               ;   On action: cleanup
	.uleb128 Ltmp145-Lfunc_begin8           ; >> Call Site 4 <<
	.uleb128 Ltmp150-Ltmp145                ;   Call between Ltmp145 and Ltmp150
	.byte	0                               ;     has no landing pad
	.byte	0                               ;   On action: cleanup
	.uleb128 Ltmp150-Lfunc_begin8           ; >> Call Site 5 <<
	.uleb128 Ltmp151-Ltmp150                ;   Call between Ltmp150 and Ltmp151
	.uleb128 Ltmp152-Lfunc_begin8           ;     jumps to Ltmp152
	.byte	0                               ;   On action: cleanup
	.uleb128 Ltmp155-Lfunc_begin8           ; >> Call Site 6 <<
	.uleb128 Ltmp156-Ltmp155                ;   Call between Ltmp155 and Ltmp156
	.uleb128 Ltmp157-Lfunc_begin8           ;     jumps to Ltmp157
	.byte	0                               ;   On action: cleanup
	.uleb128 Ltmp156-Lfunc_begin8           ; >> Call Site 7 <<
	.uleb128 Ltmp141-Ltmp156                ;   Call between Ltmp156 and Ltmp141
	.byte	0                               ;     has no landing pad
	.byte	0                               ;   On action: cleanup
	.uleb128 Ltmp141-Lfunc_begin8           ; >> Call Site 8 <<
	.uleb128 Ltmp142-Ltmp141                ;   Call between Ltmp141 and Ltmp142
	.uleb128 Ltmp143-Lfunc_begin8           ;     jumps to Ltmp143
	.byte	0                               ;   On action: cleanup
	.uleb128 Ltmp147-Lfunc_begin8           ; >> Call Site 9 <<
	.uleb128 Ltmp148-Ltmp147                ;   Call between Ltmp147 and Ltmp148
	.uleb128 Ltmp149-Lfunc_begin8           ;     jumps to Ltmp149
	.byte	0                               ;   On action: cleanup
	.uleb128 Ltmp161-Lfunc_begin8           ; >> Call Site 10 <<
	.uleb128 Ltmp154-Ltmp161                ;   Call between Ltmp161 and Ltmp154
	.uleb128 Ltmp163-Lfunc_begin8           ;     jumps to Ltmp163
	.byte	0                               ;   On action: cleanup
	.uleb128 Ltmp158-Lfunc_begin8           ; >> Call Site 11 <<
	.uleb128 Ltmp159-Ltmp158                ;   Call between Ltmp158 and Ltmp159
	.uleb128 Ltmp160-Lfunc_begin8           ;     jumps to Ltmp160
	.byte	0                               ;   On action: cleanup
	.uleb128 Ltmp159-Lfunc_begin8           ; >> Call Site 12 <<
	.uleb128 Lfunc_end8-Ltmp159             ;   Call between Ltmp159 and Lfunc_end8
	.byte	0                               ;     has no landing pad
	.byte	0                               ;   On action: cleanup
Lcst_end8:
	.p2align	2
                                        ; -- End function
	.section	__TEXT,__text,regular,pure_instructions
	.globl	__ZNK9ActionSet13sample_pointsE8PositioniS0_i ; -- Begin function _ZNK9ActionSet13sample_pointsE8PositioniS0_i
	.p2align	2
__ZNK9ActionSet13sample_pointsE8PositioniS0_i: ; @_ZNK9ActionSet13sample_pointsE8PositioniS0_i
Lfunc_begin9:
	.cfi_startproc
	.cfi_personality 155, ___gxx_personality_v0
	.cfi_lsda 16, Lexception9
; %bb.0:
	sub	sp, sp, #256
	stp	x28, x27, [sp, #160]            ; 16-byte Folded Spill
	stp	x26, x25, [sp, #176]            ; 16-byte Folded Spill
	stp	x24, x23, [sp, #192]            ; 16-byte Folded Spill
	stp	x22, x21, [sp, #208]            ; 16-byte Folded Spill
	stp	x20, x19, [sp, #224]            ; 16-byte Folded Spill
	stp	x29, x30, [sp, #240]            ; 16-byte Folded Spill
	add	x29, sp, #240
	.cfi_def_cfa w29, 16
	.cfi_offset w30, -8
	.cfi_offset w29, -16
	.cfi_offset w19, -24
	.cfi_offset w20, -32
	.cfi_offset w21, -40
	.cfi_offset w22, -48
	.cfi_offset w23, -56
	.cfi_offset w24, -64
	.cfi_offset w25, -72
	.cfi_offset w26, -80
	.cfi_offset w27, -88
	.cfi_offset w28, -96
	mov	x23, x4
	mov	x24, x3
	mov	x22, x2
	mov	x21, x1
	mov	x20, x0
	mov	x19, x8
	mov	x8, sp
	mov	x0, x2
	bl	__ZNSt3__19to_stringEi
Ltmp164:
	mov	x1, sp
	mov	x0, x20
	bl	__ZNK8nlohmann10basic_jsonINSt3__13mapENS1_6vectorENS1_12basic_stringIcNS1_11char_traitsIcEENS1_9allocatorIcEEEEbxydS7_NS_14adl_serializerENS3_IhNS7_IhEEEEEixERKS9_
Ltmp165:
; %bb.1:
	stp	xzr, xzr, [x29, #-104]
	stur	xzr, [x29, #-88]
Ltmp167:
	sub	x1, x29, #104
	bl	__ZN8nlohmann6detail9from_jsonINS_10basic_jsonINSt3__13mapENS3_6vectorENS3_12basic_stringIcNS3_11char_traitsIcEENS3_9allocatorIcEEEEbxydS9_NS_14adl_serializerENS5_IhNS9_IhEEEEEENS5_INS5_IiNS9_IiEEEENS9_ISH_EEEELi0EEEDTcmcmcl20from_json_array_implfp_fp0_tlNS0_12priority_tagILj3EEEEEcldtfp_3getINT0_10value_typeEEEcvv_EERKT_RSM_
Ltmp168:
; %bb.2:                                ; %_ZNK8nlohmann10basic_jsonINSt3__13mapENS1_6vectorENS1_12basic_stringIcNS1_11char_traitsIcEENS1_9allocatorIcEEEEbxydS7_NS_14adl_serializerENS3_IhNS7_IhEEEEE3getINS3_INS3_IiNS7_IiEEEENS7_ISG_EEEESI_EEDTcldtclL_ZNS1_7declvalIRKSD_EEDTcl9__declvalIT_ELi0EEEvEE8get_implIT0_EtlNS_6detail12priority_tagILj4EEEEEEv.exit
	lsr	x25, x21, #32
	ldrsb	w8, [sp, #23]
	tbnz	w8, #31, LBB16_4
; %bb.3:                                ; %_ZNSt3__112basic_stringIcNS_11char_traitsIcEENS_9allocatorIcEEED1Ev.exit
	ldp	x26, x8, [x29, #-104]
	mov	x27, x26
	cmp	x26, x8
	b.lo	LBB16_5
	b	LBB16_10
LBB16_4:
	ldr	x0, [sp]
	bl	__ZdlPv
	ldp	x26, x8, [x29, #-104]
	mov	x27, x26
	cmp	x26, x8
	b.hs	LBB16_10
LBB16_5:                                ; %.lr.ph143.preheader
	lsr	x10, x24, #32
	sub	w9, w24, w21
	sub	w10, w10, w25
	mov	x27, x26
	b	LBB16_7
LBB16_6:                                ; %.critedge
                                        ;   in Loop: Header=BB16_7 Depth=1
	add	x27, x27, #24
	cmp	x27, x8
	b.hs	LBB16_10
LBB16_7:                                ; %.lr.ph143
                                        ; =>This Inner Loop Header: Depth=1
	ldr	x11, [x27]
	ldr	w12, [x11]
	cmp	w12, w9
	b.ne	LBB16_6
; %bb.8:                                ;   in Loop: Header=BB16_7 Depth=1
	ldr	w12, [x11, #4]
	cmp	w12, w10
	b.ne	LBB16_6
; %bb.9:                                ;   in Loop: Header=BB16_7 Depth=1
	ldr	w11, [x11, #8]
	cmp	w11, w23
	b.ne	LBB16_6
LBB16_10:                               ; %._crit_edge
Ltmp170:
	mov	x8, sp
	mov	x0, x22
	bl	__ZNSt3__19to_stringEi
Ltmp171:
; %bb.11:
	add	x0, x20, #16
Ltmp173:
	mov	x1, sp
	bl	__ZNK8nlohmann10basic_jsonINSt3__13mapENS1_6vectorENS1_12basic_stringIcNS1_11char_traitsIcEENS1_9allocatorIcEEEEbxydS7_NS_14adl_serializerENS3_IhNS7_IhEEEEEixERKS9_
Ltmp174:
; %bb.12:
	mov	x20, x0
	sub	x8, x27, x26
	lsr	x8, x8, #3
	mov	w9, #43691
	movk	w9, #43690, lsl #16
	mul	w0, w8, w9
Ltmp176:
	add	x8, sp, #96
	bl	__ZNSt3__19to_stringEi
Ltmp177:
; %bb.13:
Ltmp179:
	add	x1, sp, #96
	mov	x0, x20
	bl	__ZNK8nlohmann10basic_jsonINSt3__13mapENS1_6vectorENS1_12basic_stringIcNS1_11char_traitsIcEENS1_9allocatorIcEEEEbxydS7_NS_14adl_serializerENS3_IhNS7_IhEEEEEixERKS9_
	mov	x1, x0
Ltmp180:
; %bb.14:
Ltmp181:
	add	x0, sp, #120
	bl	__ZN8nlohmann10basic_jsonINSt3__13mapENS1_6vectorENS1_12basic_stringIcNS1_11char_traitsIcEENS1_9allocatorIcEEEEbxydS7_NS_14adl_serializerENS3_IhNS7_IhEEEEEC2ERKSD_
Ltmp182:
; %bb.15:                               ; %_ZN8nlohmann10basic_jsonINSt3__13mapENS1_6vectorENS1_12basic_stringIcNS1_11char_traitsIcEENS1_9allocatorIcEEEEbxydS7_NS_14adl_serializerENS3_IhNS7_IhEEEEEC1ERKSD_.exit
	ldrsb	w8, [sp, #119]
	tbnz	w8, #31, LBB16_37
; %bb.16:                               ; %_ZNSt3__112basic_stringIcNS_11char_traitsIcEENS_9allocatorIcEEED1Ev.exit82
	ldrsb	w8, [sp, #23]
	tbnz	w8, #31, LBB16_38
LBB16_17:                               ; %_ZNSt3__112basic_stringIcNS_11char_traitsIcEENS_9allocatorIcEEED1Ev.exit83
Ltmp184:
Lloh46:
	adrp	x1, l_.str.2@PAGE
Lloh47:
	add	x1, x1, l_.str.2@PAGEOFF
	add	x0, sp, #120
	bl	__ZN8nlohmann10basic_jsonINSt3__13mapENS1_6vectorENS1_12basic_stringIcNS1_11char_traitsIcEENS1_9allocatorIcEEEEbxydS7_NS_14adl_serializerENS3_IhNS7_IhEEEEEixIKcEERSD_PT_
Ltmp185:
; %bb.18:
	stp	xzr, xzr, [sp, #96]
	str	xzr, [sp, #112]
Ltmp187:
	add	x1, sp, #96
	bl	__ZN8nlohmann6detail9from_jsonINS_10basic_jsonINSt3__13mapENS3_6vectorENS3_12basic_stringIcNS3_11char_traitsIcEENS3_9allocatorIcEEEEbxydS9_NS_14adl_serializerENS5_IhNS9_IhEEEEEENS5_IdNS9_IdEEEELi0EEEDTcmcmcl20from_json_array_implfp_fp0_tlNS0_12priority_tagILj3EEEEEcldtfp_3getINT0_10value_typeEEEcvv_EERKT_RSK_
Ltmp188:
; %bb.19:                               ; %_ZNK8nlohmann10basic_jsonINSt3__13mapENS1_6vectorENS1_12basic_stringIcNS1_11char_traitsIcEENS1_9allocatorIcEEEEbxydS7_NS_14adl_serializerENS3_IhNS7_IhEEEEE3getINS3_IdNS7_IdEEEESG_EEDTcldtclL_ZNS1_7declvalIRKSD_EEDTcl9__declvalIT_ELi0EEEvEE8get_implIT0_EtlNS_6detail12priority_tagILj4EEEEEEv.exit
Ltmp190:
Lloh48:
	adrp	x1, l_.str.3@PAGE
Lloh49:
	add	x1, x1, l_.str.3@PAGEOFF
	add	x0, sp, #120
	bl	__ZN8nlohmann10basic_jsonINSt3__13mapENS1_6vectorENS1_12basic_stringIcNS1_11char_traitsIcEENS1_9allocatorIcEEEEbxydS7_NS_14adl_serializerENS3_IhNS7_IhEEEEEixIKcEERSD_PT_
Ltmp191:
; %bb.20:
	stp	xzr, xzr, [sp, #72]
	str	xzr, [sp, #88]
Ltmp193:
	add	x1, sp, #72
	bl	__ZN8nlohmann6detail9from_jsonINS_10basic_jsonINSt3__13mapENS3_6vectorENS3_12basic_stringIcNS3_11char_traitsIcEENS3_9allocatorIcEEEEbxydS9_NS_14adl_serializerENS5_IhNS9_IhEEEEEENS5_IdNS9_IdEEEELi0EEEDTcmcmcl20from_json_array_implfp_fp0_tlNS0_12priority_tagILj3EEEEEcldtfp_3getINT0_10value_typeEEEcvv_EERKT_RSK_
Ltmp194:
; %bb.21:                               ; %_ZNK8nlohmann10basic_jsonINSt3__13mapENS1_6vectorENS1_12basic_stringIcNS1_11char_traitsIcEENS1_9allocatorIcEEEEbxydS7_NS_14adl_serializerENS3_IhNS7_IhEEEEE3getINS3_IdNS7_IdEEEESG_EEDTcldtclL_ZNS1_7declvalIRKSD_EEDTcl9__declvalIT_ELi0EEEvEE8get_implIT0_EtlNS_6detail12priority_tagILj4EEEEEEv.exit92
Ltmp196:
Lloh50:
	adrp	x1, l_.str.4@PAGE
Lloh51:
	add	x1, x1, l_.str.4@PAGEOFF
	add	x0, sp, #120
	bl	__ZN8nlohmann10basic_jsonINSt3__13mapENS1_6vectorENS1_12basic_stringIcNS1_11char_traitsIcEENS1_9allocatorIcEEEEbxydS7_NS_14adl_serializerENS3_IhNS7_IhEEEEEixIKcEERSD_PT_
Ltmp197:
; %bb.22:
	stp	xzr, xzr, [sp, #48]
	str	xzr, [sp, #64]
Ltmp199:
	add	x1, sp, #48
	bl	__ZN8nlohmann6detail9from_jsonINS_10basic_jsonINSt3__13mapENS3_6vectorENS3_12basic_stringIcNS3_11char_traitsIcEENS3_9allocatorIcEEEEbxydS9_NS_14adl_serializerENS5_IhNS9_IhEEEEEENS5_IdNS9_IdEEEELi0EEEDTcmcmcl20from_json_array_implfp_fp0_tlNS0_12priority_tagILj3EEEEEcldtfp_3getINT0_10value_typeEEEcvv_EERKT_RSK_
Ltmp200:
; %bb.23:                               ; %_ZNK8nlohmann10basic_jsonINSt3__13mapENS1_6vectorENS1_12basic_stringIcNS1_11char_traitsIcEENS1_9allocatorIcEEEEbxydS7_NS_14adl_serializerENS3_IhNS7_IhEEEEE3getINS3_IdNS7_IdEEEESG_EEDTcldtclL_ZNS1_7declvalIRKSD_EEDTcl9__declvalIT_ELi0EEEvEE8get_implIT0_EtlNS_6detail12priority_tagILj4EEEEEEv.exit97.preheader
	ldp	x22, x8, [sp, #96]
	ldr	x20, [sp, #72]
	subs	x23, x8, x22
	asr	x24, x23, #3
	b.eq	LBB16_30
; %bb.24:                               ; %_ZNK8nlohmann10basic_jsonINSt3__13mapENS1_6vectorENS1_12basic_stringIcNS1_11char_traitsIcEENS1_9allocatorIcEEEEbxydS7_NS_14adl_serializerENS3_IhNS7_IhEEEEE3getINS3_IdNS7_IdEEEESG_EEDTcldtclL_ZNS1_7declvalIRKSD_EEDTcl9__declvalIT_ELi0EEEvEE8get_implIT0_EtlNS_6detail12priority_tagILj4EEEEEEv.exit97.preheader147
	scvtf	d0, w21
	scvtf	d1, w25
	cmp	x24, #1
	csinc	x8, x24, xzr, hi
	cmp	x8, #4
	b.lo	LBB16_27
; %bb.25:                               ; %vector.memcheck
	lsl	x9, x8, #3
	add	x10, x20, x9
	cmp	x22, x10
	b.hs	LBB16_62
; %bb.26:                               ; %vector.memcheck
	add	x9, x22, x9
	cmp	x20, x9
	b.hs	LBB16_62
LBB16_27:
	mov	x9, #0
LBB16_28:                               ; %_ZNK8nlohmann10basic_jsonINSt3__13mapENS1_6vectorENS1_12basic_stringIcNS1_11char_traitsIcEENS1_9allocatorIcEEEEbxydS7_NS_14adl_serializerENS3_IhNS7_IhEEEEE3getINS3_IdNS7_IdEEEESG_EEDTcldtclL_ZNS1_7declvalIRKSD_EEDTcl9__declvalIT_ELi0EEEvEE8get_implIT0_EtlNS_6detail12priority_tagILj4EEEEEEv.exit97.preheader165
	lsl	x11, x9, #3
	add	x10, x20, x11
	add	x11, x22, x11
	sub	x8, x8, x9
LBB16_29:                               ; %_ZNK8nlohmann10basic_jsonINSt3__13mapENS1_6vectorENS1_12basic_stringIcNS1_11char_traitsIcEENS1_9allocatorIcEEEEbxydS7_NS_14adl_serializerENS3_IhNS7_IhEEEEE3getINS3_IdNS7_IdEEEESG_EEDTcldtclL_ZNS1_7declvalIRKSD_EEDTcl9__declvalIT_ELi0EEEvEE8get_implIT0_EtlNS_6detail12priority_tagILj4EEEEEEv.exit97
                                        ; =>This Inner Loop Header: Depth=1
	ldr	d2, [x11]
	fadd	d2, d2, d0
	str	d2, [x11], #8
	ldr	d2, [x10]
	fadd	d2, d2, d1
	str	d2, [x10], #8
	subs	x8, x8, #1
	b.ne	LBB16_29
LBB16_30:                               ; %_ZNK8nlohmann10basic_jsonINSt3__13mapENS1_6vectorENS1_12basic_stringIcNS1_11char_traitsIcEENS1_9allocatorIcEEEEbxydS7_NS_14adl_serializerENS3_IhNS7_IhEEEEE3getINS3_IdNS7_IdEEEESG_EEDTcldtclL_ZNS1_7declvalIRKSD_EEDTcl9__declvalIT_ELi0EEEvEE8get_implIT0_EtlNS_6detail12priority_tagILj4EEEEEEv.exit97._crit_edge
	ldr	x27, [sp, #80]
	stp	xzr, xzr, [sp, #8]
	str	xzr, [sp]
	cbz	x23, LBB16_39
; %bb.31:
	tbnz	x23, #63, LBB16_65
; %bb.32:                               ; %_ZNSt3__116allocator_traitsINS_9allocatorIdEEE8allocateERS2_m.exit.i.i.i.i.i.i
Ltmp202:
	mov	x0, x23
	bl	__Znwm
Ltmp203:
; %bb.33:                               ; %_ZNSt3__16vectorIdNS_9allocatorIdEEE18__construct_at_endIPdEENS_9enable_ifIXsr27__is_cpp17_forward_iteratorIT_EE5valueEvE4typeES7_S7_m.exit.i.i.i.i.i
	mov	x21, x0
	add	x25, x0, x24, lsl #3
	str	x0, [sp]
	str	x25, [sp, #16]
	mov	x1, x22
	mov	x2, x23
	bl	_memcpy
	add	x26, x21, x23
	str	x26, [sp, #8]
	mov	x8, sp
	add	x22, x8, #24
	stp	xzr, xzr, [sp, #24]
	str	xzr, [sp, #40]
	subs	x24, x27, x20
	b.eq	LBB16_40
LBB16_34:
	tbnz	x24, #63, LBB16_66
; %bb.35:                               ; %_ZNSt3__116allocator_traitsINS_9allocatorIdEEE8allocateERS2_m.exit.i.i.i11.i.i.i
Ltmp207:
	mov	x0, x24
	bl	__Znwm
Ltmp208:
; %bb.36:                               ; %_ZNSt3__16vectorIdNS_9allocatorIdEEE18__construct_at_endIPdEENS_9enable_ifIXsr27__is_cpp17_forward_iteratorIT_EE5valueEvE4typeES7_S7_m.exit.i.i13.i.i.i
	mov	x23, x0
	asr	x8, x24, #3
	add	x27, x0, x8, lsl #3
	mov	x1, x20
	mov	x2, x24
	bl	_memcpy
	add	x8, x23, x24
	b	LBB16_41
LBB16_37:
	ldr	x0, [sp, #96]
	bl	__ZdlPv
	ldrsb	w8, [sp, #23]
	tbz	w8, #31, LBB16_17
LBB16_38:
	ldr	x0, [sp]
	bl	__ZdlPv
	b	LBB16_17
LBB16_39:
	mov	x25, #0
	mov	x26, #0
	mov	x21, #0
	mov	x8, sp
	add	x22, x8, #24
	stp	xzr, xzr, [sp, #24]
	str	xzr, [sp, #40]
	subs	x24, x27, x20
	b.ne	LBB16_34
LBB16_40:
	mov	x27, #0
	mov	x8, #0
	mov	x23, #0
LBB16_41:                               ; %_ZNSt3__1L9make_pairIRNS_6vectorIdNS_9allocatorIdEEEES5_EENS_4pairINS_18__unwrap_ref_decayIT_E4typeENS7_IT0_E4typeEEEOS8_OSB_.exit
	stp	x21, x26, [x19]
	stp	xzr, xzr, [sp, #8]
	str	xzr, [sp]
	stp	x25, x23, [x19, #16]
	stp	x8, x27, [x19, #32]
	stp	xzr, xzr, [x22, #8]
	mov	x23, x19
	str	xzr, [x23, #48]!
	str	xzr, [x22]
	stp	xzr, xzr, [x19, #56]
	ldp	x21, x8, [sp, #48]
	subs	x22, x8, x21
	b.eq	LBB16_45
; %bb.42:
	tbnz	x22, #63, LBB16_67
; %bb.43:                               ; %_ZNSt3__116allocator_traitsINS_9allocatorIdEEE8allocateERS2_m.exit.i.i.i.i.i.i105
Ltmp212:
	mov	x0, x22
	bl	__Znwm
Ltmp213:
; %bb.44:                               ; %_ZNSt3__16vectorIdNS_9allocatorIdEEE18__construct_at_endIPdEENS_9enable_ifIXsr27__is_cpp17_forward_iteratorIT_EE5valueEvE4typeES7_S7_m.exit.i.i.i.i.i106
	mov	x24, x0
	asr	x8, x22, #3
	str	x0, [x19, #48]
	add	x8, x0, x8, lsl #3
	str	x8, [x19, #64]
	mov	x1, x21
	mov	x2, x22
	bl	_memcpy
	add	x8, x24, x22
	str	x8, [x19, #56]
LBB16_45:                               ; %_ZNSt3__14pairINS_6vectorIdNS_9allocatorIdEEEES4_ED1Ev.exit114
	cbz	x21, LBB16_47
; %bb.46:
	str	x21, [sp, #56]
	mov	x0, x21
	bl	__ZdlPv
	ldr	x20, [sp, #72]
LBB16_47:                               ; %_ZNSt3__16vectorIdNS_9allocatorIdEEED1Ev.exit116
	cbz	x20, LBB16_49
; %bb.48:
	str	x20, [sp, #80]
	mov	x0, x20
	bl	__ZdlPv
LBB16_49:                               ; %_ZNSt3__16vectorIdNS_9allocatorIdEEED1Ev.exit118
	ldr	x0, [sp, #96]
	cbz	x0, LBB16_51
; %bb.50:
	str	x0, [sp, #104]
	bl	__ZdlPv
LBB16_51:                               ; %_ZNSt3__16vectorIdNS_9allocatorIdEEED1Ev.exit120
	add	x19, sp, #120
	add	x0, sp, #120
	mov	w1, #0
	bl	__ZNK8nlohmann10basic_jsonINSt3__13mapENS1_6vectorENS1_12basic_stringIcNS1_11char_traitsIcEENS1_9allocatorIcEEEEbxydS7_NS_14adl_serializerENS3_IhNS7_IhEEEEE16assert_invariantEb
	add	x0, x19, #8
	ldrb	w1, [sp, #120]
Ltmp220:
	bl	__ZN8nlohmann10basic_jsonINSt3__13mapENS1_6vectorENS1_12basic_stringIcNS1_11char_traitsIcEENS1_9allocatorIcEEEEbxydS7_NS_14adl_serializerENS3_IhNS7_IhEEEEE10json_value7destroyENS_6detail7value_tE
Ltmp221:
; %bb.52:                               ; %_ZN8nlohmann10basic_jsonINSt3__13mapENS1_6vectorENS1_12basic_stringIcNS1_11char_traitsIcEENS1_9allocatorIcEEEEbxydS7_NS_14adl_serializerENS3_IhNS7_IhEEEEED1Ev.exit121
	ldur	x19, [x29, #-104]
	cbz	x19, LBB16_61
; %bb.53:
	ldur	x8, [x29, #-96]
	cmp	x8, x19
	b.eq	LBB16_59
; %bb.54:                               ; %.lr.ph.i.i.i.i.i74.preheader
	mov	x20, x8
	b	LBB16_56
LBB16_55:                               ; %_ZNSt3__116allocator_traitsINS_9allocatorINS_6vectorIiNS1_IiEEEEEEE7destroyIS4_vEEvRS5_PT_.exit.i.i.i.i.i76
                                        ;   in Loop: Header=BB16_56 Depth=1
	mov	x8, x20
	cmp	x20, x19
	b.eq	LBB16_58
LBB16_56:                               ; %.lr.ph.i.i.i.i.i74
                                        ; =>This Inner Loop Header: Depth=1
	ldr	x0, [x20, #-24]!
	cbz	x0, LBB16_55
; %bb.57:                               ;   in Loop: Header=BB16_56 Depth=1
	stur	x0, [x8, #-16]
	bl	__ZdlPv
	b	LBB16_55
LBB16_58:                               ; %_ZNSt3__113__vector_baseINS_6vectorIiNS_9allocatorIiEEEENS2_IS4_EEE5clearEv.exit.loopexit.i.i.i79
	ldur	x0, [x29, #-104]
	b	LBB16_60
LBB16_59:
	mov	x0, x19
LBB16_60:                               ; %_ZNSt3__113__vector_baseINS_6vectorIiNS_9allocatorIiEEEENS2_IS4_EEE5clearEv.exit.i.i.i80
	stur	x19, [x29, #-96]
	bl	__ZdlPv
LBB16_61:                               ; %_ZNSt3__16vectorINS0_IiNS_9allocatorIiEEEENS1_IS3_EEED1Ev.exit81
	ldp	x29, x30, [sp, #240]            ; 16-byte Folded Reload
	ldp	x20, x19, [sp, #224]            ; 16-byte Folded Reload
	ldp	x22, x21, [sp, #208]            ; 16-byte Folded Reload
	ldp	x24, x23, [sp, #192]            ; 16-byte Folded Reload
	ldp	x26, x25, [sp, #176]            ; 16-byte Folded Reload
	ldp	x28, x27, [sp, #160]            ; 16-byte Folded Reload
	add	sp, sp, #256
	ret
LBB16_62:                               ; %vector.ph
	dup.2d	v2, v0[0]
	and	x9, x8, #0xfffffffffffffffc
	dup.2d	v3, v1[0]
	add	x10, x22, #16
	add	x11, x20, #16
	mov	x12, x9
LBB16_63:                               ; %vector.body
                                        ; =>This Inner Loop Header: Depth=1
	ldp	q4, q5, [x10, #-16]
	fadd.2d	v4, v4, v2
	fadd.2d	v5, v5, v2
	stp	q4, q5, [x10, #-16]
	ldp	q4, q5, [x11, #-16]
	fadd.2d	v4, v4, v3
	fadd.2d	v5, v5, v3
	stp	q4, q5, [x11, #-16]
	add	x10, x10, #32
	add	x11, x11, #32
	subs	x12, x12, #4
	b.ne	LBB16_63
; %bb.64:                               ; %middle.block
	cmp	x8, x9
	b.eq	LBB16_30
	b	LBB16_28
LBB16_65:
Ltmp204:
	mov	x0, sp
	bl	__ZNKSt3__113__vector_baseIdNS_9allocatorIdEEE20__throw_length_errorEv
Ltmp205:
	b	LBB16_68
LBB16_66:
Ltmp209:
	mov	x0, x22
	bl	__ZNKSt3__113__vector_baseIdNS_9allocatorIdEEE20__throw_length_errorEv
Ltmp210:
	b	LBB16_68
LBB16_67:
Ltmp214:
	mov	x0, x23
	bl	__ZNKSt3__113__vector_baseIdNS_9allocatorIdEEE20__throw_length_errorEv
Ltmp215:
LBB16_68:                               ; %.noexc.i.i.i.i.i
	brk	#0x1
LBB16_69:
Ltmp222:
	bl	___clang_call_terminate
LBB16_70:
Ltmp201:
	mov	x20, x0
	b	LBB16_98
LBB16_71:
Ltmp198:
	b	LBB16_73
LBB16_72:
Ltmp195:
LBB16_73:                               ; %.body95
	mov	x20, x0
	ldr	x0, [sp, #72]
	cbz	x0, LBB16_100
	b	LBB16_104
LBB16_74:
Ltmp192:
	b	LBB16_76
LBB16_75:
Ltmp189:
LBB16_76:                               ; %.body90
	mov	x20, x0
	ldr	x0, [sp, #96]
	cbnz	x0, LBB16_101
	b	LBB16_102
LBB16_77:
Ltmp186:
	mov	x20, x0
	b	LBB16_102
LBB16_78:
Ltmp178:
	mov	x20, x0
	b	LBB16_107
LBB16_79:
Ltmp175:
	mov	x20, x0
	b	LBB16_107
LBB16_80:
Ltmp172:
	mov	x20, x0
	b	LBB16_109
LBB16_81:
Ltmp169:
	mov	x20, x0
	ldur	x0, [x29, #-104]
	cbz	x0, LBB16_84
; %bb.82:                               ; %codeRepl
	sub	x1, x29, #104
	bl	__ZNK9ActionSet13sample_pointsE8PositioniS0_i.cold.1
	b	LBB16_84
LBB16_83:
Ltmp166:
	mov	x20, x0
LBB16_84:                               ; %.body
	ldrsb	w8, [sp, #23]
	tbz	w8, #31, LBB16_118
; %bb.85:
	ldr	x0, [sp]
	b	LBB16_117
LBB16_86:
Ltmp216:
	mov	x20, x0
	ldr	x0, [x23]
	cbnz	x0, LBB16_89
; %bb.87:                               ; %.body.i.i.i108
	ldr	x0, [x19, #24]
	cbnz	x0, LBB16_90
LBB16_88:                               ; %_ZNSt3__16vectorIdNS_9allocatorIdEEED1Ev.exit.i.i.i.i.i
	ldr	x0, [x19]
	cbnz	x0, LBB16_91
	b	LBB16_98
LBB16_89:
	str	x0, [x19, #56]
	bl	__ZdlPv
	ldr	x0, [x19, #24]
	cbz	x0, LBB16_88
LBB16_90:
	str	x0, [x19, #32]
	bl	__ZdlPv
	ldr	x0, [x19]
	cbz	x0, LBB16_98
LBB16_91:
	str	x0, [x19, #8]
	b	LBB16_97
LBB16_92:
Ltmp211:
	mov	x20, x0
	ldr	x0, [sp, #24]
	cbz	x0, LBB16_95
; %bb.93:
	str	x0, [sp, #32]
	bl	__ZdlPv
	b	LBB16_95
LBB16_94:
Ltmp206:
	mov	x20, x0
LBB16_95:
	ldr	x0, [sp]
	cbz	x0, LBB16_98
; %bb.96:                               ; %common.resume.sink.split.i.i.i
	str	x0, [sp, #8]
LBB16_97:                               ; %.body99.sink.split
	bl	__ZdlPv
LBB16_98:                               ; %.body99
	ldr	x0, [sp, #48]
	cbnz	x0, LBB16_103
; %bb.99:                               ; %.body95
	ldr	x0, [sp, #72]
	cbnz	x0, LBB16_104
LBB16_100:                              ; %.body90
	ldr	x0, [sp, #96]
	cbz	x0, LBB16_102
LBB16_101:
	str	x0, [sp, #104]
	bl	__ZdlPv
LBB16_102:                              ; %.body86
	add	x19, sp, #120
	add	x0, sp, #120
	mov	w1, #0
	bl	__ZNK8nlohmann10basic_jsonINSt3__13mapENS1_6vectorENS1_12basic_stringIcNS1_11char_traitsIcEENS1_9allocatorIcEEEEbxydS7_NS_14adl_serializerENS3_IhNS7_IhEEEEE16assert_invariantEb
	add	x0, x19, #8
	ldrb	w1, [sp, #120]
Ltmp217:
	bl	__ZN8nlohmann10basic_jsonINSt3__13mapENS1_6vectorENS1_12basic_stringIcNS1_11char_traitsIcEENS1_9allocatorIcEEEEbxydS7_NS_14adl_serializerENS3_IhNS7_IhEEEEE10json_value7destroyENS_6detail7value_tE
Ltmp218:
	b	LBB16_109
LBB16_103:
	str	x0, [sp, #56]
	bl	__ZdlPv
	ldr	x0, [sp, #72]
	cbz	x0, LBB16_100
LBB16_104:
	str	x0, [sp, #80]
	bl	__ZdlPv
	ldr	x0, [sp, #96]
	cbnz	x0, LBB16_101
	b	LBB16_102
LBB16_105:
Ltmp183:
	mov	x20, x0
	ldrsb	w8, [sp, #119]
	tbz	w8, #31, LBB16_107
; %bb.106:
	ldr	x0, [sp, #96]
	bl	__ZdlPv
LBB16_107:
	ldrsb	w8, [sp, #23]
	tbz	w8, #31, LBB16_109
; %bb.108:
	ldr	x0, [sp]
	bl	__ZdlPv
LBB16_109:                              ; %_ZN8nlohmann10basic_jsonINSt3__13mapENS1_6vectorENS1_12basic_stringIcNS1_11char_traitsIcEENS1_9allocatorIcEEEEbxydS7_NS_14adl_serializerENS3_IhNS7_IhEEEEED1Ev.exit
	ldur	x19, [x29, #-104]
	cbz	x19, LBB16_118
; %bb.110:
	ldur	x8, [x29, #-96]
	mov	x0, x19
	cmp	x8, x19
	b.eq	LBB16_116
; %bb.111:                              ; %.lr.ph.i.i.i.i.i.preheader
	mov	x21, x8
	b	LBB16_113
LBB16_112:                              ; %_ZNSt3__116allocator_traitsINS_9allocatorINS_6vectorIiNS1_IiEEEEEEE7destroyIS4_vEEvRS5_PT_.exit.i.i.i.i.i
                                        ;   in Loop: Header=BB16_113 Depth=1
	mov	x8, x21
	cmp	x21, x19
	b.eq	LBB16_115
LBB16_113:                              ; %.lr.ph.i.i.i.i.i
                                        ; =>This Inner Loop Header: Depth=1
	ldr	x0, [x21, #-24]!
	cbz	x0, LBB16_112
; %bb.114:                              ;   in Loop: Header=BB16_113 Depth=1
	stur	x0, [x8, #-16]
	bl	__ZdlPv
	b	LBB16_112
LBB16_115:                              ; %_ZNSt3__113__vector_baseINS_6vectorIiNS_9allocatorIiEEEENS2_IS4_EEE5clearEv.exit.loopexit.i.i.i
	ldur	x0, [x29, #-104]
LBB16_116:                              ; %_ZNSt3__113__vector_baseINS_6vectorIiNS_9allocatorIiEEEENS2_IS4_EEE5clearEv.exit.i.i.i
	stur	x19, [x29, #-96]
LBB16_117:                              ; %_ZNSt3__16vectorINS0_IiNS_9allocatorIiEEEENS1_IS3_EEED1Ev.exit
	bl	__ZdlPv
LBB16_118:                              ; %_ZNSt3__16vectorINS0_IiNS_9allocatorIiEEEENS1_IS3_EEED1Ev.exit
	mov	x0, x20
	bl	__Unwind_Resume
LBB16_119:
Ltmp219:
	bl	___clang_call_terminate
	.loh AdrpAdd	Lloh46, Lloh47
	.loh AdrpAdd	Lloh48, Lloh49
	.loh AdrpAdd	Lloh50, Lloh51
Lfunc_end9:
	.cfi_endproc
	.section	__TEXT,__gcc_except_tab
	.p2align	2
GCC_except_table16:
Lexception9:
	.byte	255                             ; @LPStart Encoding = omit
	.byte	155                             ; @TType Encoding = indirect pcrel sdata4
	.uleb128 Lttbase5-Lttbaseref5
Lttbaseref5:
	.byte	1                               ; Call site Encoding = uleb128
	.uleb128 Lcst_end9-Lcst_begin9
Lcst_begin9:
	.uleb128 Lfunc_begin9-Lfunc_begin9      ; >> Call Site 1 <<
	.uleb128 Ltmp164-Lfunc_begin9           ;   Call between Lfunc_begin9 and Ltmp164
	.byte	0                               ;     has no landing pad
	.byte	0                               ;   On action: cleanup
	.uleb128 Ltmp164-Lfunc_begin9           ; >> Call Site 2 <<
	.uleb128 Ltmp165-Ltmp164                ;   Call between Ltmp164 and Ltmp165
	.uleb128 Ltmp166-Lfunc_begin9           ;     jumps to Ltmp166
	.byte	0                               ;   On action: cleanup
	.uleb128 Ltmp167-Lfunc_begin9           ; >> Call Site 3 <<
	.uleb128 Ltmp168-Ltmp167                ;   Call between Ltmp167 and Ltmp168
	.uleb128 Ltmp169-Lfunc_begin9           ;     jumps to Ltmp169
	.byte	0                               ;   On action: cleanup
	.uleb128 Ltmp170-Lfunc_begin9           ; >> Call Site 4 <<
	.uleb128 Ltmp171-Ltmp170                ;   Call between Ltmp170 and Ltmp171
	.uleb128 Ltmp172-Lfunc_begin9           ;     jumps to Ltmp172
	.byte	0                               ;   On action: cleanup
	.uleb128 Ltmp173-Lfunc_begin9           ; >> Call Site 5 <<
	.uleb128 Ltmp174-Ltmp173                ;   Call between Ltmp173 and Ltmp174
	.uleb128 Ltmp175-Lfunc_begin9           ;     jumps to Ltmp175
	.byte	0                               ;   On action: cleanup
	.uleb128 Ltmp176-Lfunc_begin9           ; >> Call Site 6 <<
	.uleb128 Ltmp177-Ltmp176                ;   Call between Ltmp176 and Ltmp177
	.uleb128 Ltmp178-Lfunc_begin9           ;     jumps to Ltmp178
	.byte	0                               ;   On action: cleanup
	.uleb128 Ltmp179-Lfunc_begin9           ; >> Call Site 7 <<
	.uleb128 Ltmp182-Ltmp179                ;   Call between Ltmp179 and Ltmp182
	.uleb128 Ltmp183-Lfunc_begin9           ;     jumps to Ltmp183
	.byte	0                               ;   On action: cleanup
	.uleb128 Ltmp184-Lfunc_begin9           ; >> Call Site 8 <<
	.uleb128 Ltmp185-Ltmp184                ;   Call between Ltmp184 and Ltmp185
	.uleb128 Ltmp186-Lfunc_begin9           ;     jumps to Ltmp186
	.byte	0                               ;   On action: cleanup
	.uleb128 Ltmp187-Lfunc_begin9           ; >> Call Site 9 <<
	.uleb128 Ltmp188-Ltmp187                ;   Call between Ltmp187 and Ltmp188
	.uleb128 Ltmp189-Lfunc_begin9           ;     jumps to Ltmp189
	.byte	0                               ;   On action: cleanup
	.uleb128 Ltmp190-Lfunc_begin9           ; >> Call Site 10 <<
	.uleb128 Ltmp191-Ltmp190                ;   Call between Ltmp190 and Ltmp191
	.uleb128 Ltmp192-Lfunc_begin9           ;     jumps to Ltmp192
	.byte	0                               ;   On action: cleanup
	.uleb128 Ltmp193-Lfunc_begin9           ; >> Call Site 11 <<
	.uleb128 Ltmp194-Ltmp193                ;   Call between Ltmp193 and Ltmp194
	.uleb128 Ltmp195-Lfunc_begin9           ;     jumps to Ltmp195
	.byte	0                               ;   On action: cleanup
	.uleb128 Ltmp196-Lfunc_begin9           ; >> Call Site 12 <<
	.uleb128 Ltmp197-Ltmp196                ;   Call between Ltmp196 and Ltmp197
	.uleb128 Ltmp198-Lfunc_begin9           ;     jumps to Ltmp198
	.byte	0                               ;   On action: cleanup
	.uleb128 Ltmp199-Lfunc_begin9           ; >> Call Site 13 <<
	.uleb128 Ltmp200-Ltmp199                ;   Call between Ltmp199 and Ltmp200
	.uleb128 Ltmp201-Lfunc_begin9           ;     jumps to Ltmp201
	.byte	0                               ;   On action: cleanup
	.uleb128 Ltmp202-Lfunc_begin9           ; >> Call Site 14 <<
	.uleb128 Ltmp203-Ltmp202                ;   Call between Ltmp202 and Ltmp203
	.uleb128 Ltmp206-Lfunc_begin9           ;     jumps to Ltmp206
	.byte	0                               ;   On action: cleanup
	.uleb128 Ltmp203-Lfunc_begin9           ; >> Call Site 15 <<
	.uleb128 Ltmp207-Ltmp203                ;   Call between Ltmp203 and Ltmp207
	.byte	0                               ;     has no landing pad
	.byte	0                               ;   On action: cleanup
	.uleb128 Ltmp207-Lfunc_begin9           ; >> Call Site 16 <<
	.uleb128 Ltmp208-Ltmp207                ;   Call between Ltmp207 and Ltmp208
	.uleb128 Ltmp211-Lfunc_begin9           ;     jumps to Ltmp211
	.byte	0                               ;   On action: cleanup
	.uleb128 Ltmp208-Lfunc_begin9           ; >> Call Site 17 <<
	.uleb128 Ltmp212-Ltmp208                ;   Call between Ltmp208 and Ltmp212
	.byte	0                               ;     has no landing pad
	.byte	0                               ;   On action: cleanup
	.uleb128 Ltmp212-Lfunc_begin9           ; >> Call Site 18 <<
	.uleb128 Ltmp213-Ltmp212                ;   Call between Ltmp212 and Ltmp213
	.uleb128 Ltmp216-Lfunc_begin9           ;     jumps to Ltmp216
	.byte	0                               ;   On action: cleanup
	.uleb128 Ltmp213-Lfunc_begin9           ; >> Call Site 19 <<
	.uleb128 Ltmp220-Ltmp213                ;   Call between Ltmp213 and Ltmp220
	.byte	0                               ;     has no landing pad
	.byte	0                               ;   On action: cleanup
	.uleb128 Ltmp220-Lfunc_begin9           ; >> Call Site 20 <<
	.uleb128 Ltmp221-Ltmp220                ;   Call between Ltmp220 and Ltmp221
	.uleb128 Ltmp222-Lfunc_begin9           ;     jumps to Ltmp222
	.byte	1                               ;   On action: 1
	.uleb128 Ltmp204-Lfunc_begin9           ; >> Call Site 21 <<
	.uleb128 Ltmp205-Ltmp204                ;   Call between Ltmp204 and Ltmp205
	.uleb128 Ltmp206-Lfunc_begin9           ;     jumps to Ltmp206
	.byte	0                               ;   On action: cleanup
	.uleb128 Ltmp209-Lfunc_begin9           ; >> Call Site 22 <<
	.uleb128 Ltmp210-Ltmp209                ;   Call between Ltmp209 and Ltmp210
	.uleb128 Ltmp211-Lfunc_begin9           ;     jumps to Ltmp211
	.byte	0                               ;   On action: cleanup
	.uleb128 Ltmp214-Lfunc_begin9           ; >> Call Site 23 <<
	.uleb128 Ltmp215-Ltmp214                ;   Call between Ltmp214 and Ltmp215
	.uleb128 Ltmp216-Lfunc_begin9           ;     jumps to Ltmp216
	.byte	0                               ;   On action: cleanup
	.uleb128 Ltmp215-Lfunc_begin9           ; >> Call Site 24 <<
	.uleb128 Ltmp217-Ltmp215                ;   Call between Ltmp215 and Ltmp217
	.byte	0                               ;     has no landing pad
	.byte	0                               ;   On action: cleanup
	.uleb128 Ltmp217-Lfunc_begin9           ; >> Call Site 25 <<
	.uleb128 Ltmp218-Ltmp217                ;   Call between Ltmp217 and Ltmp218
	.uleb128 Ltmp219-Lfunc_begin9           ;     jumps to Ltmp219
	.byte	1                               ;   On action: 1
	.uleb128 Ltmp218-Lfunc_begin9           ; >> Call Site 26 <<
	.uleb128 Lfunc_end9-Ltmp218             ;   Call between Ltmp218 and Lfunc_end9
	.byte	0                               ;     has no landing pad
	.byte	0                               ;   On action: cleanup
Lcst_end9:
	.byte	1                               ; >> Action Record 1 <<
                                        ;   Catch TypeInfo 1
	.byte	0                               ;   No further actions
	.p2align	2
                                        ; >> Catch TypeInfos <<
	.long	0                               ; TypeInfo 1
Lttbase5:
	.p2align	2
                                        ; -- End function
	.section	__TEXT,__text,regular,pure_instructions
	.globl	__ZNK8nlohmann10basic_jsonINSt3__13mapENS1_6vectorENS1_12basic_stringIcNS1_11char_traitsIcEENS1_9allocatorIcEEEEbxydS7_NS_14adl_serializerENS3_IhNS7_IhEEEEEixERKS9_ ; -- Begin function _ZNK8nlohmann10basic_jsonINSt3__13mapENS1_6vectorENS1_12basic_stringIcNS1_11char_traitsIcEENS1_9allocatorIcEEEEbxydS7_NS_14adl_serializerENS3_IhNS7_IhEEEEEixERKS9_
	.weak_def_can_be_hidden	__ZNK8nlohmann10basic_jsonINSt3__13mapENS1_6vectorENS1_12basic_stringIcNS1_11char_traitsIcEENS1_9allocatorIcEEEEbxydS7_NS_14adl_serializerENS3_IhNS7_IhEEEEEixERKS9_
	.p2align	2
__ZNK8nlohmann10basic_jsonINSt3__13mapENS1_6vectorENS1_12basic_stringIcNS1_11char_traitsIcEENS1_9allocatorIcEEEEbxydS7_NS_14adl_serializerENS3_IhNS7_IhEEEEEixERKS9_: ; @_ZNK8nlohmann10basic_jsonINSt3__13mapENS1_6vectorENS1_12basic_stringIcNS1_11char_traitsIcEENS1_9allocatorIcEEEEbxydS7_NS_14adl_serializerENS3_IhNS7_IhEEEEEixERKS9_
Lfunc_begin10:
	.cfi_startproc
	.cfi_personality 155, ___gxx_personality_v0
	.cfi_lsda 16, Lexception10
; %bb.0:
	sub	sp, sp, #128
	stp	x24, x23, [sp, #64]             ; 16-byte Folded Spill
	stp	x22, x21, [sp, #80]             ; 16-byte Folded Spill
	stp	x20, x19, [sp, #96]             ; 16-byte Folded Spill
	stp	x29, x30, [sp, #112]            ; 16-byte Folded Spill
	add	x29, sp, #112
	.cfi_def_cfa w29, 16
	.cfi_offset w30, -8
	.cfi_offset w29, -16
	.cfi_offset w19, -24
	.cfi_offset w20, -32
	.cfi_offset w21, -40
	.cfi_offset w22, -48
	.cfi_offset w23, -56
	.cfi_offset w24, -64
	mov	x20, x0
	ldrb	w8, [x0]
	cmp	w8, #1
	b.ne	LBB17_3
; %bb.1:
	mov	x19, x1
	ldr	x0, [x20, #8]
	bl	__ZNSt3__16__treeINS_12__value_typeINS_12basic_stringIcNS_11char_traitsIcEENS_9allocatorIcEEEEN8nlohmann10basic_jsonINS_3mapENS_6vectorES7_bxydS5_NS8_14adl_serializerENSB_IhNS5_IhEEEEEEEENS_19__map_value_compareIS7_SG_NS_4lessIS7_EELb1EEENS5_ISG_EEE4findIS7_EENS_15__tree_iteratorISG_PNS_11__tree_nodeISG_PvEElEERKT_
	mov	x8, x0
	ldr	x0, [x20, #8]
	add	x9, x0, #8
	cmp	x9, x8
	b.eq	LBB17_5
; %bb.2:
	mov	x1, x19
	bl	__ZNSt3__16__treeINS_12__value_typeINS_12basic_stringIcNS_11char_traitsIcEENS_9allocatorIcEEEEN8nlohmann10basic_jsonINS_3mapENS_6vectorES7_bxydS5_NS8_14adl_serializerENSB_IhNS5_IhEEEEEEEENS_19__map_value_compareIS7_SG_NS_4lessIS7_EELb1EEENS5_ISG_EEE4findIS7_EENS_15__tree_iteratorISG_PNS_11__tree_nodeISG_PvEElEERKT_
	add	x0, x0, #56
	ldp	x29, x30, [sp, #112]            ; 16-byte Folded Reload
	ldp	x20, x19, [sp, #96]             ; 16-byte Folded Reload
	ldp	x22, x21, [sp, #80]             ; 16-byte Folded Reload
	ldp	x24, x23, [sp, #64]             ; 16-byte Folded Reload
	add	sp, sp, #128
	ret
LBB17_3:
	mov	w0, #32
	bl	___cxa_allocate_exception
	mov	x19, x0
	ldrsb	x8, [x20]
	cmp	x8, #9
	b.hi	LBB17_6
; %bb.4:                                ; %switch.lookup
Lloh52:
	adrp	x9, l_switch.table._ZN8nlohmann6detail20get_arithmetic_valueINS_10basic_jsonINSt3__13mapENS3_6vectorENS3_12basic_stringIcNS3_11char_traitsIcEENS3_9allocatorIcEEEEbxydS9_NS_14adl_serializerENS5_IhNS9_IhEEEEEEdLi0EEEvRKT_RT0_@PAGE
Lloh53:
	add	x9, x9, l_switch.table._ZN8nlohmann6detail20get_arithmetic_valueINS_10basic_jsonINSt3__13mapENS3_6vectorENS3_12basic_stringIcNS3_11char_traitsIcEENS3_9allocatorIcEEEEbxydS9_NS_14adl_serializerENS5_IhNS9_IhEEEEEEdLi0EEEvRKT_RT0_@PAGEOFF
	ldr	x21, [x9, x8, lsl #3]
	b	LBB17_7
LBB17_5:                                ; %codeRepl
	bl	__ZNK8nlohmann10basic_jsonINSt3__13mapENS1_6vectorENS1_12basic_stringIcNS1_11char_traitsIcEENS1_9allocatorIcEEEEbxydS7_NS_14adl_serializerENS3_IhNS7_IhEEEEEixERKS9_.cold.1
LBB17_6:
Lloh54:
	adrp	x21, l_.str.111@PAGE
Lloh55:
	add	x21, x21, l_.str.111@PAGEOFF
LBB17_7:                                ; %_ZNK8nlohmann10basic_jsonINSt3__13mapENS1_6vectorENS1_12basic_stringIcNS1_11char_traitsIcEENS1_9allocatorIcEEEEbxydS7_NS_14adl_serializerENS3_IhNS7_IhEEEEE9type_nameEv.exit
	mov	x0, x21
	bl	_strlen
	cmn	x0, #16
	b.lo	LBB17_9
; %bb.8:
Ltmp233:
	add	x0, sp, #8
	bl	__ZNKSt3__112basic_stringIcNS_11char_traitsIcEENS_9allocatorIcEEE20__throw_length_errorEv
Ltmp234:
	b	LBB17_17
LBB17_9:
	mov	x22, x0
	cmp	x0, #23
	b.hs	LBB17_11
; %bb.10:
	add	x0, sp, #8
	strb	w22, [sp, #31]
	cbnz	x22, LBB17_13
	b	LBB17_14
LBB17_11:                               ; %.thread.i.i.i
	add	x8, x22, #16
	and	x23, x8, #0xfffffffffffffff0
Ltmp223:
	mov	x0, x23
	bl	__Znwm
Ltmp224:
; %bb.12:                               ; %.noexc12
	orr	x8, x23, #0x8000000000000000
	stp	x22, x8, [sp, #16]
	str	x0, [sp, #8]
LBB17_13:
	mov	x23, x0
	mov	x1, x21
	mov	x2, x22
	bl	_memcpy
	mov	x0, x23
LBB17_14:
	strb	wzr, [x0, x22]
Ltmp225:
Lloh56:
	adrp	x2, l_.str.142@PAGE
Lloh57:
	add	x2, x2, l_.str.142@PAGEOFF
	add	x0, sp, #8
	mov	x1, #0
	bl	__ZNSt3__112basic_stringIcNS_11char_traitsIcEENS_9allocatorIcEEE6insertEmPKc
Ltmp226:
; %bb.15:
	ldr	q0, [x0]
	ldr	x8, [x0, #16]
	str	x8, [sp, #48]
	str	q0, [sp, #32]
	stp	xzr, xzr, [x0, #8]
	str	xzr, [x0]
	mov	w21, #1
Ltmp228:
	add	x1, sp, #32
	mov	x8, x19
	mov	w0, #305
	mov	x2, x20
	bl	__ZN8nlohmann6detail10type_error6createINS_10basic_jsonINSt3__13mapENS4_6vectorENS4_12basic_stringIcNS4_11char_traitsIcEENS4_9allocatorIcEEEEbxydSA_NS_14adl_serializerENS6_IhNSA_IhEEEEEEEES1_iRKSC_RKT_
Ltmp229:
; %bb.16:
Ltmp230:
	mov	w21, #0
Lloh58:
	adrp	x1, __ZTIN8nlohmann6detail10type_errorE@PAGE
Lloh59:
	add	x1, x1, __ZTIN8nlohmann6detail10type_errorE@PAGEOFF
Lloh60:
	adrp	x2, __ZN8nlohmann6detail10type_errorD1Ev@GOTPAGE
Lloh61:
	ldr	x2, [x2, __ZN8nlohmann6detail10type_errorD1Ev@GOTPAGEOFF]
	mov	x0, x19
	bl	___cxa_throw
Ltmp231:
LBB17_17:                               ; %.noexc
	brk	#0x1
LBB17_18:
Ltmp232:
	mov	x20, x0
	ldrsb	w8, [sp, #55]
	tbz	w8, #31, LBB17_21
; %bb.19:
	ldr	x0, [sp, #32]
	bl	__ZdlPv
	b	LBB17_21
LBB17_20:
Ltmp227:
	mov	x20, x0
	mov	w21, #1
LBB17_21:                               ; %_ZNSt3__112basic_stringIcNS_11char_traitsIcEENS_9allocatorIcEEED1Ev.exit11
	ldrsb	w8, [sp, #31]
	tbz	w8, #31, LBB17_23
; %bb.22:
	ldr	x0, [sp, #8]
	bl	__ZdlPv
	tbnz	w21, #0, LBB17_25
	b	LBB17_26
LBB17_23:                               ; %_ZNSt3__112basic_stringIcNS_11char_traitsIcEENS_9allocatorIcEEED1Ev.exit
	cbnz	w21, LBB17_25
	b	LBB17_26
LBB17_24:                               ; %_ZNSt3__112basic_stringIcNS_11char_traitsIcEENS_9allocatorIcEEED1Ev.exit.thread
Ltmp235:
	mov	x20, x0
LBB17_25:
	mov	x0, x19
	bl	___cxa_free_exception
LBB17_26:
	mov	x0, x20
	bl	__Unwind_Resume
	.loh AdrpAdd	Lloh52, Lloh53
	.loh AdrpAdd	Lloh54, Lloh55
	.loh AdrpAdd	Lloh56, Lloh57
	.loh AdrpLdrGot	Lloh60, Lloh61
	.loh AdrpAdd	Lloh58, Lloh59
Lfunc_end10:
	.cfi_endproc
	.section	__TEXT,__gcc_except_tab
	.p2align	2
GCC_except_table17:
Lexception10:
	.byte	255                             ; @LPStart Encoding = omit
	.byte	255                             ; @TType Encoding = omit
	.byte	1                               ; Call site Encoding = uleb128
	.uleb128 Lcst_end10-Lcst_begin10
Lcst_begin10:
	.uleb128 Lfunc_begin10-Lfunc_begin10    ; >> Call Site 1 <<
	.uleb128 Ltmp233-Lfunc_begin10          ;   Call between Lfunc_begin10 and Ltmp233
	.byte	0                               ;     has no landing pad
	.byte	0                               ;   On action: cleanup
	.uleb128 Ltmp233-Lfunc_begin10          ; >> Call Site 2 <<
	.uleb128 Ltmp224-Ltmp233                ;   Call between Ltmp233 and Ltmp224
	.uleb128 Ltmp235-Lfunc_begin10          ;     jumps to Ltmp235
	.byte	0                               ;   On action: cleanup
	.uleb128 Ltmp224-Lfunc_begin10          ; >> Call Site 3 <<
	.uleb128 Ltmp225-Ltmp224                ;   Call between Ltmp224 and Ltmp225
	.byte	0                               ;     has no landing pad
	.byte	0                               ;   On action: cleanup
	.uleb128 Ltmp225-Lfunc_begin10          ; >> Call Site 4 <<
	.uleb128 Ltmp226-Ltmp225                ;   Call between Ltmp225 and Ltmp226
	.uleb128 Ltmp227-Lfunc_begin10          ;     jumps to Ltmp227
	.byte	0                               ;   On action: cleanup
	.uleb128 Ltmp228-Lfunc_begin10          ; >> Call Site 5 <<
	.uleb128 Ltmp231-Ltmp228                ;   Call between Ltmp228 and Ltmp231
	.uleb128 Ltmp232-Lfunc_begin10          ;     jumps to Ltmp232
	.byte	0                               ;   On action: cleanup
	.uleb128 Ltmp231-Lfunc_begin10          ; >> Call Site 6 <<
	.uleb128 Lfunc_end10-Ltmp231            ;   Call between Ltmp231 and Lfunc_end10
	.byte	0                               ;     has no landing pad
	.byte	0                               ;   On action: cleanup
Lcst_end10:
	.p2align	2
                                        ; -- End function
	.section	__TEXT,__text,regular,pure_instructions
	.globl	__ZN8nlohmann10basic_jsonINSt3__13mapENS1_6vectorENS1_12basic_stringIcNS1_11char_traitsIcEENS1_9allocatorIcEEEEbxydS7_NS_14adl_serializerENS3_IhNS7_IhEEEEEixIKcEERSD_PT_ ; -- Begin function _ZN8nlohmann10basic_jsonINSt3__13mapENS1_6vectorENS1_12basic_stringIcNS1_11char_traitsIcEENS1_9allocatorIcEEEEbxydS7_NS_14adl_serializerENS3_IhNS7_IhEEEEEixIKcEERSD_PT_
	.weak_def_can_be_hidden	__ZN8nlohmann10basic_jsonINSt3__13mapENS1_6vectorENS1_12basic_stringIcNS1_11char_traitsIcEENS1_9allocatorIcEEEEbxydS7_NS_14adl_serializerENS3_IhNS7_IhEEEEEixIKcEERSD_PT_
	.p2align	2
__ZN8nlohmann10basic_jsonINSt3__13mapENS1_6vectorENS1_12basic_stringIcNS1_11char_traitsIcEENS1_9allocatorIcEEEEbxydS7_NS_14adl_serializerENS3_IhNS7_IhEEEEEixIKcEERSD_PT_: ; @_ZN8nlohmann10basic_jsonINSt3__13mapENS1_6vectorENS1_12basic_stringIcNS1_11char_traitsIcEENS1_9allocatorIcEEEEbxydS7_NS_14adl_serializerENS3_IhNS7_IhEEEEEixIKcEERSD_PT_
Lfunc_begin11:
	.cfi_startproc
	.cfi_personality 155, ___gxx_personality_v0
	.cfi_lsda 16, Lexception11
; %bb.0:
	sub	sp, sp, #128
	stp	x24, x23, [sp, #64]             ; 16-byte Folded Spill
	stp	x22, x21, [sp, #80]             ; 16-byte Folded Spill
	stp	x20, x19, [sp, #96]             ; 16-byte Folded Spill
	stp	x29, x30, [sp, #112]            ; 16-byte Folded Spill
	add	x29, sp, #112
	.cfi_def_cfa w29, 16
	.cfi_offset w30, -8
	.cfi_offset w29, -16
	.cfi_offset w19, -24
	.cfi_offset w20, -32
	.cfi_offset w21, -40
	.cfi_offset w22, -48
	.cfi_offset w23, -56
	.cfi_offset w24, -64
	mov	x19, x1
	mov	x20, x0
	ldrb	w8, [x0]
	cbnz	w8, LBB18_2
; %bb.1:
	mov	w8, #1
	strb	w8, [x20]
	mov	w0, #24
	bl	__Znwm
	str	xzr, [x0, #16]
	mov	x8, x0
	str	xzr, [x8, #8]!
	str	x8, [x0]
	str	x0, [x20, #8]
	mov	x0, x20
	mov	w1, #1
	bl	__ZNK8nlohmann10basic_jsonINSt3__13mapENS1_6vectorENS1_12basic_stringIcNS1_11char_traitsIcEENS1_9allocatorIcEEEEbxydS7_NS_14adl_serializerENS3_IhNS7_IhEEEEE16assert_invariantEb
	ldrb	w8, [x20]
LBB18_2:
	cmp	w8, #1
	b.ne	LBB18_12
; %bb.3:
	ldr	x20, [x20, #8]
	mov	x0, x19
	bl	_strlen
	cmn	x0, #16
	b.hs	LBB18_26
; %bb.4:
	mov	x21, x0
	cmp	x0, #23
	b.hs	LBB18_6
; %bb.5:
	add	x22, sp, #32
	strb	w21, [sp, #55]
	cbnz	x21, LBB18_7
	b	LBB18_8
LBB18_6:                                ; %.thread.i.i.i
	add	x8, x21, #16
	and	x23, x8, #0xfffffffffffffff0
	mov	x0, x23
	bl	__Znwm
	mov	x22, x0
	orr	x8, x23, #0x8000000000000000
	stp	x21, x8, [sp, #40]
	str	x0, [sp, #32]
LBB18_7:
	mov	x0, x22
	mov	x1, x19
	mov	x2, x21
	bl	_memcpy
LBB18_8:                                ; %_ZNSt3__112basic_stringIcNS_11char_traitsIcEENS_9allocatorIcEEEC1IDnEEPKc.exit
	strb	wzr, [x22, x21]
	add	x8, sp, #32
	str	x8, [sp, #8]
Ltmp249:
Lloh62:
	adrp	x2, __ZNSt3__1L19piecewise_constructE@PAGE
Lloh63:
	add	x2, x2, __ZNSt3__1L19piecewise_constructE@PAGEOFF
	add	x1, sp, #32
	add	x3, sp, #8
	add	x4, sp, #56
	mov	x0, x20
	bl	__ZNSt3__16__treeINS_12__value_typeINS_12basic_stringIcNS_11char_traitsIcEENS_9allocatorIcEEEEN8nlohmann10basic_jsonINS_3mapENS_6vectorES7_bxydS5_NS8_14adl_serializerENSB_IhNS5_IhEEEEEEEENS_19__map_value_compareIS7_SG_NS_4lessIS7_EELb1EEENS5_ISG_EEE25__emplace_unique_key_argsIS7_JRKNS_21piecewise_construct_tENS_5tupleIJOS7_EEENSR_IJEEEEEENS_4pairINS_15__tree_iteratorISG_PNS_11__tree_nodeISG_PvEElEEbEERKT_DpOT0_
Ltmp250:
; %bb.9:
	mov	x19, x0
	ldrsb	w8, [sp, #55]
	tbz	w8, #31, LBB18_11
; %bb.10:
	ldr	x0, [sp, #32]
	bl	__ZdlPv
LBB18_11:                               ; %_ZNSt3__112basic_stringIcNS_11char_traitsIcEENS_9allocatorIcEEED1Ev.exit15
	add	x0, x19, #56
	ldp	x29, x30, [sp, #112]            ; 16-byte Folded Reload
	ldp	x20, x19, [sp, #96]             ; 16-byte Folded Reload
	ldp	x22, x21, [sp, #80]             ; 16-byte Folded Reload
	ldp	x24, x23, [sp, #64]             ; 16-byte Folded Reload
	add	sp, sp, #128
	ret
LBB18_12:
	mov	w0, #32
	bl	___cxa_allocate_exception
	mov	x19, x0
	ldrsb	x8, [x20]
	cmp	x8, #9
	b.hi	LBB18_14
; %bb.13:                               ; %switch.lookup
Lloh64:
	adrp	x9, l_switch.table._ZN8nlohmann6detail20get_arithmetic_valueINS_10basic_jsonINSt3__13mapENS3_6vectorENS3_12basic_stringIcNS3_11char_traitsIcEENS3_9allocatorIcEEEEbxydS9_NS_14adl_serializerENS5_IhNS9_IhEEEEEEdLi0EEEvRKT_RT0_@PAGE
Lloh65:
	add	x9, x9, l_switch.table._ZN8nlohmann6detail20get_arithmetic_valueINS_10basic_jsonINSt3__13mapENS3_6vectorENS3_12basic_stringIcNS3_11char_traitsIcEENS3_9allocatorIcEEEEbxydS9_NS_14adl_serializerENS5_IhNS9_IhEEEEEEdLi0EEEvRKT_RT0_@PAGEOFF
	ldr	x21, [x9, x8, lsl #3]
	b	LBB18_15
LBB18_14:
Lloh66:
	adrp	x21, l_.str.111@PAGE
Lloh67:
	add	x21, x21, l_.str.111@PAGEOFF
LBB18_15:                               ; %_ZNK8nlohmann10basic_jsonINSt3__13mapENS1_6vectorENS1_12basic_stringIcNS1_11char_traitsIcEENS1_9allocatorIcEEEEbxydS7_NS_14adl_serializerENS3_IhNS7_IhEEEEE9type_nameEv.exit
	mov	x0, x21
	bl	_strlen
	cmn	x0, #16
	b.lo	LBB18_17
; %bb.16:
Ltmp246:
	add	x0, sp, #8
	bl	__ZNKSt3__112basic_stringIcNS_11char_traitsIcEENS_9allocatorIcEEE20__throw_length_errorEv
Ltmp247:
	b	LBB18_25
LBB18_17:
	mov	x22, x0
	cmp	x0, #23
	b.hs	LBB18_19
; %bb.18:
	add	x0, sp, #8
	strb	w22, [sp, #31]
	cbnz	x22, LBB18_21
	b	LBB18_22
LBB18_19:                               ; %.thread.i.i.i17
	add	x8, x22, #16
	and	x23, x8, #0xfffffffffffffff0
Ltmp236:
	mov	x0, x23
	bl	__Znwm
Ltmp237:
; %bb.20:                               ; %.noexc20
	orr	x8, x23, #0x8000000000000000
	stp	x22, x8, [sp, #16]
	str	x0, [sp, #8]
LBB18_21:
	mov	x23, x0
	mov	x1, x21
	mov	x2, x22
	bl	_memcpy
	mov	x0, x23
LBB18_22:
	strb	wzr, [x0, x22]
Ltmp238:
Lloh68:
	adrp	x2, l_.str.142@PAGE
Lloh69:
	add	x2, x2, l_.str.142@PAGEOFF
	add	x0, sp, #8
	mov	x1, #0
	bl	__ZNSt3__112basic_stringIcNS_11char_traitsIcEENS_9allocatorIcEEE6insertEmPKc
Ltmp239:
; %bb.23:
	ldr	q0, [x0]
	ldr	x8, [x0, #16]
	str	x8, [sp, #48]
	str	q0, [sp, #32]
	stp	xzr, xzr, [x0, #8]
	str	xzr, [x0]
	mov	w21, #1
Ltmp241:
	add	x1, sp, #32
	mov	x8, x19
	mov	w0, #305
	mov	x2, x20
	bl	__ZN8nlohmann6detail10type_error6createINS_10basic_jsonINSt3__13mapENS4_6vectorENS4_12basic_stringIcNS4_11char_traitsIcEENS4_9allocatorIcEEEEbxydSA_NS_14adl_serializerENS6_IhNSA_IhEEEEEEEES1_iRKSC_RKT_
Ltmp242:
; %bb.24:
Ltmp243:
	mov	w21, #0
Lloh70:
	adrp	x1, __ZTIN8nlohmann6detail10type_errorE@PAGE
Lloh71:
	add	x1, x1, __ZTIN8nlohmann6detail10type_errorE@PAGEOFF
Lloh72:
	adrp	x2, __ZN8nlohmann6detail10type_errorD1Ev@GOTPAGE
Lloh73:
	ldr	x2, [x2, __ZN8nlohmann6detail10type_errorD1Ev@GOTPAGEOFF]
	mov	x0, x19
	bl	___cxa_throw
Ltmp244:
LBB18_25:                               ; %.noexc
	brk	#0x1
LBB18_26:
	add	x0, sp, #32
	bl	__ZNKSt3__112basic_stringIcNS_11char_traitsIcEENS_9allocatorIcEEE20__throw_length_errorEv
LBB18_27:
Ltmp251:
	mov	x20, x0
	ldrsb	w8, [sp, #55]
	tbz	w8, #31, LBB18_37
; %bb.28:
	ldr	x0, [sp, #32]
	bl	__ZdlPv
	mov	x0, x20
	bl	__Unwind_Resume
LBB18_29:
Ltmp245:
	mov	x20, x0
	ldrsb	w8, [sp, #55]
	tbz	w8, #31, LBB18_32
; %bb.30:
	ldr	x0, [sp, #32]
	bl	__ZdlPv
	b	LBB18_32
LBB18_31:
Ltmp240:
	mov	x20, x0
	mov	w21, #1
LBB18_32:                               ; %_ZNSt3__112basic_stringIcNS_11char_traitsIcEENS_9allocatorIcEEED1Ev.exit14
	ldrsb	w8, [sp, #31]
	tbz	w8, #31, LBB18_34
; %bb.33:
	ldr	x0, [sp, #8]
	bl	__ZdlPv
	tbnz	w21, #0, LBB18_36
	b	LBB18_37
LBB18_34:                               ; %_ZNSt3__112basic_stringIcNS_11char_traitsIcEENS_9allocatorIcEEED1Ev.exit
	cbnz	w21, LBB18_36
	b	LBB18_37
LBB18_35:                               ; %_ZNSt3__112basic_stringIcNS_11char_traitsIcEENS_9allocatorIcEEED1Ev.exit.thread
Ltmp248:
	mov	x20, x0
LBB18_36:
	mov	x0, x19
	bl	___cxa_free_exception
LBB18_37:
	mov	x0, x20
	bl	__Unwind_Resume
	.loh AdrpAdd	Lloh62, Lloh63
	.loh AdrpAdd	Lloh64, Lloh65
	.loh AdrpAdd	Lloh66, Lloh67
	.loh AdrpAdd	Lloh68, Lloh69
	.loh AdrpLdrGot	Lloh72, Lloh73
	.loh AdrpAdd	Lloh70, Lloh71
Lfunc_end11:
	.cfi_endproc
	.section	__TEXT,__gcc_except_tab
	.p2align	2
GCC_except_table18:
Lexception11:
	.byte	255                             ; @LPStart Encoding = omit
	.byte	255                             ; @TType Encoding = omit
	.byte	1                               ; Call site Encoding = uleb128
	.uleb128 Lcst_end11-Lcst_begin11
Lcst_begin11:
	.uleb128 Lfunc_begin11-Lfunc_begin11    ; >> Call Site 1 <<
	.uleb128 Ltmp249-Lfunc_begin11          ;   Call between Lfunc_begin11 and Ltmp249
	.byte	0                               ;     has no landing pad
	.byte	0                               ;   On action: cleanup
	.uleb128 Ltmp249-Lfunc_begin11          ; >> Call Site 2 <<
	.uleb128 Ltmp250-Ltmp249                ;   Call between Ltmp249 and Ltmp250
	.uleb128 Ltmp251-Lfunc_begin11          ;     jumps to Ltmp251
	.byte	0                               ;   On action: cleanup
	.uleb128 Ltmp250-Lfunc_begin11          ; >> Call Site 3 <<
	.uleb128 Ltmp246-Ltmp250                ;   Call between Ltmp250 and Ltmp246
	.byte	0                               ;     has no landing pad
	.byte	0                               ;   On action: cleanup
	.uleb128 Ltmp246-Lfunc_begin11          ; >> Call Site 4 <<
	.uleb128 Ltmp237-Ltmp246                ;   Call between Ltmp246 and Ltmp237
	.uleb128 Ltmp248-Lfunc_begin11          ;     jumps to Ltmp248
	.byte	0                               ;   On action: cleanup
	.uleb128 Ltmp237-Lfunc_begin11          ; >> Call Site 5 <<
	.uleb128 Ltmp238-Ltmp237                ;   Call between Ltmp237 and Ltmp238
	.byte	0                               ;     has no landing pad
	.byte	0                               ;   On action: cleanup
	.uleb128 Ltmp238-Lfunc_begin11          ; >> Call Site 6 <<
	.uleb128 Ltmp239-Ltmp238                ;   Call between Ltmp238 and Ltmp239
	.uleb128 Ltmp240-Lfunc_begin11          ;     jumps to Ltmp240
	.byte	0                               ;   On action: cleanup
	.uleb128 Ltmp241-Lfunc_begin11          ; >> Call Site 7 <<
	.uleb128 Ltmp244-Ltmp241                ;   Call between Ltmp241 and Ltmp244
	.uleb128 Ltmp245-Lfunc_begin11          ;     jumps to Ltmp245
	.byte	0                               ;   On action: cleanup
	.uleb128 Ltmp244-Lfunc_begin11          ; >> Call Site 8 <<
	.uleb128 Lfunc_end11-Ltmp244            ;   Call between Ltmp244 and Lfunc_end11
	.byte	0                               ;     has no landing pad
	.byte	0                               ;   On action: cleanup
Lcst_end11:
	.p2align	2
                                        ; -- End function
	.section	__TEXT,__text,regular,pure_instructions
	.globl	__Z22state_lattice_cpp_testv    ; -- Begin function _Z22state_lattice_cpp_testv
	.p2align	2
__Z22state_lattice_cpp_testv:           ; @_Z22state_lattice_cpp_testv
Lfunc_begin12:
	.cfi_startproc
	.cfi_personality 155, ___gxx_personality_v0
	.cfi_lsda 16, Lexception12
; %bb.0:
	sub	sp, sp, #272
	stp	x28, x27, [sp, #176]            ; 16-byte Folded Spill
	stp	x26, x25, [sp, #192]            ; 16-byte Folded Spill
	stp	x24, x23, [sp, #208]            ; 16-byte Folded Spill
	stp	x22, x21, [sp, #224]            ; 16-byte Folded Spill
	stp	x20, x19, [sp, #240]            ; 16-byte Folded Spill
	stp	x29, x30, [sp, #256]            ; 16-byte Folded Spill
	add	x29, sp, #256
	.cfi_def_cfa w29, 16
	.cfi_offset w30, -8
	.cfi_offset w29, -16
	.cfi_offset w19, -24
	.cfi_offset w20, -32
	.cfi_offset w21, -40
	.cfi_offset w22, -48
	.cfi_offset w23, -56
	.cfi_offset w24, -64
	.cfi_offset w25, -72
	.cfi_offset w26, -80
	.cfi_offset w27, -88
	.cfi_offset w28, -96
	movi.2d	v0, #0000000000000000
	stp	q0, q0, [sp, #128]
	add	x8, sp, #128
	add	x19, x8, #16
	add	x0, sp, #128
	mov	w1, #1
	bl	__ZNK8nlohmann10basic_jsonINSt3__13mapENS1_6vectorENS1_12basic_stringIcNS1_11char_traitsIcEENS1_9allocatorIcEEEEbxydS7_NS_14adl_serializerENS3_IhNS7_IhEEEEE16assert_invariantEb
	add	x0, sp, #128
	mov	w1, #1
	bl	__ZNK8nlohmann10basic_jsonINSt3__13mapENS1_6vectorENS1_12basic_stringIcNS1_11char_traitsIcEENS1_9allocatorIcEEEEbxydS7_NS_14adl_serializerENS3_IhNS7_IhEEEEE16assert_invariantEb
	strb	wzr, [sp, #144]
	str	xzr, [sp, #152]
	mov	x0, x19
	mov	w1, #1
	bl	__ZNK8nlohmann10basic_jsonINSt3__13mapENS1_6vectorENS1_12basic_stringIcNS1_11char_traitsIcEENS1_9allocatorIcEEEEbxydS7_NS_14adl_serializerENS3_IhNS7_IhEEEEE16assert_invariantEb
	mov	x0, x19
	mov	w1, #1
	bl	__ZNK8nlohmann10basic_jsonINSt3__13mapENS1_6vectorENS1_12basic_stringIcNS1_11char_traitsIcEENS1_9allocatorIcEEEEbxydS7_NS_14adl_serializerENS3_IhNS7_IhEEEEE16assert_invariantEb
	mov	w8, #17
	strb	w8, [sp, #119]
	mov	w8, #116
	strh	w8, [sp, #112]
Lloh74:
	adrp	x8, l_.str.5@PAGE
Lloh75:
	add	x8, x8, l_.str.5@PAGEOFF
Lloh76:
	ldr	q0, [x8]
	str	q0, [sp, #96]
Ltmp252:
	add	x0, sp, #128
	add	x1, sp, #96
	bl	__ZN9ActionSet9load_dataENSt3__112basic_stringIcNS0_11char_traitsIcEENS0_9allocatorIcEEEE
Ltmp253:
; %bb.1:
	ldrsb	w8, [sp, #119]
	tbz	w8, #31, LBB19_3
; %bb.2:
	ldr	x0, [sp, #96]
	bl	__ZdlPv
LBB19_3:                                ; %_ZNSt3__112basic_stringIcNS_11char_traitsIcEENS_9allocatorIcEEED1Ev.exit
Ltmp255:
Lloh77:
	adrp	x1, l_.str.6@PAGE
Lloh78:
	add	x1, x1, l_.str.6@PAGEOFF
	add	x0, sp, #128
	bl	__ZN8nlohmann10basic_jsonINSt3__13mapENS1_6vectorENS1_12basic_stringIcNS1_11char_traitsIcEENS1_9allocatorIcEEEEbxydS7_NS_14adl_serializerENS3_IhNS7_IhEEEEEixIKcEERSD_PT_
	mov	x1, x0
Ltmp256:
; %bb.4:
Ltmp257:
	add	x0, sp, #80
	bl	__ZN8nlohmann10basic_jsonINSt3__13mapENS1_6vectorENS1_12basic_stringIcNS1_11char_traitsIcEENS1_9allocatorIcEEEEbxydS7_NS_14adl_serializerENS3_IhNS7_IhEEEEEC2ERKSD_
Ltmp258:
; %bb.5:                                ; %_ZN8nlohmann10basic_jsonINSt3__13mapENS1_6vectorENS1_12basic_stringIcNS1_11char_traitsIcEENS1_9allocatorIcEEEEbxydS7_NS_14adl_serializerENS3_IhNS7_IhEEEEEC1ERKSD_.exit
	movi.4s	v0, #1
	str	q0, [sp, #48]
Ltmp260:
	mov	w0, #16
	bl	__Znwm
Ltmp261:
; %bb.6:
	mov	x20, x0
	ldr	q0, [sp, #48]
	str	q0, [x0]
	add	x22, x0, #16
	add	x8, sp, #80
	stp	x8, xzr, [sp, #48]
	mov	x8, #-9223372036854775808
	stp	xzr, x8, [sp, #64]
	ldrb	w8, [sp, #80]
	cbz	w8, LBB19_11
; %bb.7:
	cmp	w8, #1
	b.eq	LBB19_10
; %bb.8:
	cmp	w8, #2
	b.ne	LBB19_12
; %bb.9:
	ldr	x9, [sp, #88]
	ldr	x9, [x9]
	str	x9, [sp, #64]
	b	LBB19_13
LBB19_10:
	ldr	x9, [sp, #88]
	ldr	x9, [x9]
	str	x9, [sp, #56]
	b	LBB19_13
LBB19_11:
	mov	w9, #1
	str	x9, [sp, #72]
	b	LBB19_13
LBB19_12:
	str	xzr, [sp, #72]
LBB19_13:                               ; %_ZN8nlohmann6detail9iter_implINS_10basic_jsonINSt3__13mapENS3_6vectorENS3_12basic_stringIcNS3_11char_traitsIcEENS3_9allocatorIcEEEEbxydS9_NS_14adl_serializerENS5_IhNS9_IhEEEEEEE9set_beginEv.exit
	add	x9, sp, #16
	add	x23, x9, #8
	add	x26, sp, #80
	add	x9, x26, #8
	str	x9, [sp, #8]                    ; 8-byte Folded Spill
	mov	x27, #-9223372036854775808
	mov	w28, #2
	mov	w21, #1
	b	LBB19_15
LBB19_14:                               ;   in Loop: Header=BB19_15 Depth=1
	ldr	x8, [sp, #64]
	add	x8, x8, #16
	str	x8, [sp, #64]
	ldrb	w8, [sp, #80]
LBB19_15:                               ; =>This Loop Header: Depth=1
                                        ;     Child Loop BB19_31 Depth 2
                                        ;     Child Loop BB19_33 Depth 2
	stp	xzr, xzr, [x23]
	str	x26, [sp, #16]
	str	x27, [sp, #40]
	and	w8, w8, #0xff
	cmp	w8, #2
	b.eq	LBB19_18
; %bb.16:                               ;   in Loop: Header=BB19_15 Depth=1
	cmp	w8, #1
	b.ne	LBB19_19
; %bb.17:                               ;   in Loop: Header=BB19_15 Depth=1
	ldr	x8, [sp, #88]
	add	x8, x8, #8
	str	x8, [sp, #24]
	b	LBB19_20
LBB19_18:                               ;   in Loop: Header=BB19_15 Depth=1
	ldr	x8, [sp, #88]
	ldr	x8, [x8, #8]
	str	x8, [sp, #32]
	b	LBB19_20
LBB19_19:                               ;   in Loop: Header=BB19_15 Depth=1
	str	x21, [sp, #40]
LBB19_20:                               ; %_ZN8nlohmann10basic_jsonINSt3__13mapENS1_6vectorENS1_12basic_stringIcNS1_11char_traitsIcEENS1_9allocatorIcEEEEbxydS7_NS_14adl_serializerENS3_IhNS7_IhEEEEE3endEv.exit
                                        ;   in Loop: Header=BB19_15 Depth=1
Ltmp263:
	add	x0, sp, #48
	add	x1, sp, #16
	bl	__ZNK8nlohmann6detail9iter_implINS_10basic_jsonINSt3__13mapENS3_6vectorENS3_12basic_stringIcNS3_11char_traitsIcEENS3_9allocatorIcEEEEbxydS9_NS_14adl_serializerENS5_IhNS9_IhEEEEEEEltERKSG_
Ltmp264:
; %bb.21:                               ;   in Loop: Header=BB19_15 Depth=1
	cbz	w0, LBB19_36
; %bb.22:                               ;   in Loop: Header=BB19_15 Depth=1
Ltmp266:
	add	x0, sp, #48
	bl	__ZNK8nlohmann6detail9iter_implINS_10basic_jsonINSt3__13mapENS3_6vectorENS3_12basic_stringIcNS3_11char_traitsIcEENS3_9allocatorIcEEEEbxydS9_NS_14adl_serializerENS5_IhNS9_IhEEEEEEEdeEv
Ltmp267:
; %bb.23:                               ;   in Loop: Header=BB19_15 Depth=1
	mov	x24, x0
	str	xzr, [sp, #24]
	strb	w28, [sp, #16]
Ltmp269:
	mov	w0, #24
	bl	__Znwm
Ltmp270:
; %bb.24:                               ; %.noexc38
                                        ;   in Loop: Header=BB19_15 Depth=1
	mov	x25, x0
Ltmp272:
	mov	x1, x20
	mov	x2, x22
	bl	__ZNSt3__16vectorIN8nlohmann10basic_jsonINS_3mapES0_NS_12basic_stringIcNS_11char_traitsIcEENS_9allocatorIcEEEEbxydS7_NS1_14adl_serializerENS0_IhNS7_IhEEEEEENS7_ISD_EEEC2INS_11__wrap_iterIPKiEEEET_NS_9enable_ifIXaasr27__is_cpp17_forward_iteratorISL_EE5valuesr16is_constructibleISD_NS_15iterator_traitsISL_E9referenceEEE5valueESL_E4typeE
Ltmp273:
; %bb.25:                               ;   in Loop: Header=BB19_15 Depth=1
	str	x25, [sp, #24]
	add	x0, sp, #16
	mov	w1, #1
	bl	__ZNK8nlohmann10basic_jsonINSt3__13mapENS1_6vectorENS1_12basic_stringIcNS1_11char_traitsIcEENS1_9allocatorIcEEEEbxydS7_NS_14adl_serializerENS3_IhNS7_IhEEEEE16assert_invariantEb
	add	x0, sp, #16
	mov	w1, #1
	bl	__ZNK8nlohmann10basic_jsonINSt3__13mapENS1_6vectorENS1_12basic_stringIcNS1_11char_traitsIcEENS1_9allocatorIcEEEEbxydS7_NS_14adl_serializerENS3_IhNS7_IhEEEEE16assert_invariantEb
	add	x1, sp, #16
	mov	x0, x24
	bl	__ZN8nlohmanneqERKNS_10basic_jsonINSt3__13mapENS1_6vectorENS1_12basic_stringIcNS1_11char_traitsIcEENS1_9allocatorIcEEEEbxydS7_NS_14adl_serializerENS3_IhNS7_IhEEEEEESF_
	mov	x24, x0
	add	x0, sp, #16
	mov	w1, #0
	bl	__ZNK8nlohmann10basic_jsonINSt3__13mapENS1_6vectorENS1_12basic_stringIcNS1_11char_traitsIcEENS1_9allocatorIcEEEEbxydS7_NS_14adl_serializerENS3_IhNS7_IhEEEEE16assert_invariantEb
	ldrb	w1, [sp, #16]
Ltmp275:
	mov	x0, x23
	bl	__ZN8nlohmann10basic_jsonINSt3__13mapENS1_6vectorENS1_12basic_stringIcNS1_11char_traitsIcEENS1_9allocatorIcEEEEbxydS7_NS_14adl_serializerENS3_IhNS7_IhEEEEE10json_value7destroyENS_6detail7value_tE
Ltmp276:
; %bb.26:                               ; %_ZN8nlohmann10basic_jsonINSt3__13mapENS1_6vectorENS1_12basic_stringIcNS1_11char_traitsIcEENS1_9allocatorIcEEEEbxydS7_NS_14adl_serializerENS3_IhNS7_IhEEEEED1Ev.exit
                                        ;   in Loop: Header=BB19_15 Depth=1
	tbnz	w24, #0, LBB19_36
; %bb.27:                               ;   in Loop: Header=BB19_15 Depth=1
	ldr	x8, [sp, #48]
	cbz	x8, LBB19_69
; %bb.28:                               ;   in Loop: Header=BB19_15 Depth=1
	ldrb	w8, [x8]
	cmp	w8, #2
	b.eq	LBB19_14
; %bb.29:                               ;   in Loop: Header=BB19_15 Depth=1
	cmp	w8, #1
	b.ne	LBB19_35
; %bb.30:                               ;   in Loop: Header=BB19_15 Depth=1
	ldr	x10, [sp, #56]
	ldr	x9, [x10, #8]
	cbz	x9, LBB19_33
LBB19_31:                               ; %.preheader8.i.i.i.i.i.i.i
                                        ;   Parent Loop BB19_15 Depth=1
                                        ; =>  This Inner Loop Header: Depth=2
	mov	x8, x9
	ldr	x9, [x9]
	cbnz	x9, LBB19_31
	b	LBB19_34
LBB19_32:                               ; %.lr.ph.i.i.i.i.i.i.i
                                        ;   in Loop: Header=BB19_33 Depth=2
	ldr	x10, [x9]
LBB19_33:                               ; %.preheader.i.i.i.i.i.i.i
                                        ;   Parent Loop BB19_15 Depth=1
                                        ; =>  This Inner Loop Header: Depth=2
	mov	x9, x10
	ldr	x8, [x9, #16]!
	ldr	x11, [x8]
	cmp	x11, x10
	b.ne	LBB19_32
LBB19_34:                               ; %_ZNSt3__1L7advanceINS_14__map_iteratorINS_15__tree_iteratorINS_12__value_typeINS_12basic_stringIcNS_11char_traitsIcEENS_9allocatorIcEEEEN8nlohmann10basic_jsonINS_3mapENS_6vectorES9_bxydS7_NSA_14adl_serializerENSD_IhNS7_IhEEEEEEEEPNS_11__tree_nodeISI_PvEElEEEEiivEEvRT_T0_.exit.i.i
                                        ;   in Loop: Header=BB19_15 Depth=1
	str	x8, [sp, #56]
	ldrb	w8, [sp, #80]
	b	LBB19_15
LBB19_35:                               ;   in Loop: Header=BB19_15 Depth=1
	ldr	x8, [sp, #72]
	add	x8, x8, #1
	str	x8, [sp, #72]
	ldrb	w8, [sp, #80]
	b	LBB19_15
LBB19_36:
	mov	w22, #0
Lloh79:
	adrp	x23, __ZNSt3__14coutE@GOTPAGE
Lloh80:
	ldr	x23, [x23, __ZNSt3__14coutE@GOTPAGEOFF]
Lloh81:
	adrp	x24, l_.str.7@PAGE
Lloh82:
	add	x24, x24, l_.str.7@PAGEOFF
Lloh83:
	adrp	x25, l_.str.8@PAGE
Lloh84:
	add	x25, x25, l_.str.8@PAGEOFF
Lloh85:
	adrp	x26, __ZNSt3__15ctypeIcE2idE@GOTPAGE
Lloh86:
	ldr	x26, [x26, __ZNSt3__15ctypeIcE2idE@GOTPAGEOFF]
Lloh87:
	adrp	x27, l_.str.9@PAGE
Lloh88:
	add	x27, x27, l_.str.9@PAGEOFF
	b	LBB19_40
LBB19_37:                               ; %_ZNSt3__113__vector_baseINS_6vectorIiNS_9allocatorIiEEEENS2_IS4_EEE5clearEv.exit.loopexit.i.i.i
                                        ;   in Loop: Header=BB19_40 Depth=1
	ldr	x0, [sp, #16]
LBB19_38:                               ; %_ZNSt3__113__vector_baseINS_6vectorIiNS_9allocatorIiEEEENS2_IS4_EEE5clearEv.exit.i.i.i
                                        ;   in Loop: Header=BB19_40 Depth=1
	str	x21, [sp, #24]
	bl	__ZdlPv
LBB19_39:                               ; %_ZNSt3__16vectorINS0_IiNS_9allocatorIiEEEENS1_IS3_EEED1Ev.exit
                                        ;   in Loop: Header=BB19_40 Depth=1
	add	w22, w22, #1
	cmp	w22, #8
	b.eq	LBB19_65
LBB19_40:                               ; =>This Loop Header: Depth=1
                                        ;     Child Loop BB19_42 Depth 2
                                        ;     Child Loop BB19_62 Depth 2
Ltmp281:
	add	x8, sp, #16
	add	x0, sp, #128
	mov	x1, #4294967297
	mov	x2, x22
	mov	w3, #20
	mov	w4, #20
	bl	__ZN9ActionSet11get_actionsE8Positioniii
Ltmp282:
; %bb.41:                               ;   in Loop: Header=BB19_40 Depth=1
	ldp	x21, x8, [sp, #16]
	cmp	x21, x8
	b.hs	LBB19_53
LBB19_42:                               ; %.lr.ph
                                        ;   Parent Loop BB19_40 Depth=1
                                        ; =>  This Inner Loop Header: Depth=2
Ltmp284:
	mov	x0, x23
	mov	x1, x24
	mov	w2, #1
	bl	__ZNSt3__124__put_character_sequenceIcNS_11char_traitsIcEEEERNS_13basic_ostreamIT_T0_EES7_PKS4_m
Ltmp285:
; %bb.43:                               ; %_ZNSt3__1lsINS_11char_traitsIcEEEERNS_13basic_ostreamIcT_EES6_PKc.exit
                                        ;   in Loop: Header=BB19_42 Depth=2
	ldr	x8, [x21]
	ldr	w1, [x8]
Ltmp286:
	bl	__ZNSt3__113basic_ostreamIcNS_11char_traitsIcEEElsEi
Ltmp287:
; %bb.44:                               ;   in Loop: Header=BB19_42 Depth=2
Ltmp288:
	mov	x1, x25
	mov	w2, #1
	bl	__ZNSt3__124__put_character_sequenceIcNS_11char_traitsIcEEEERNS_13basic_ostreamIT_T0_EES7_PKS4_m
Ltmp289:
; %bb.45:                               ; %_ZNSt3__1lsINS_11char_traitsIcEEEERNS_13basic_ostreamIcT_EES6_PKc.exit52
                                        ;   in Loop: Header=BB19_42 Depth=2
	ldr	x8, [x21]
	ldr	w1, [x8, #4]
Ltmp290:
	bl	__ZNSt3__113basic_ostreamIcNS_11char_traitsIcEEElsEi
Ltmp291:
; %bb.46:                               ;   in Loop: Header=BB19_42 Depth=2
Ltmp292:
	mov	x1, x25
	mov	w2, #1
	bl	__ZNSt3__124__put_character_sequenceIcNS_11char_traitsIcEEEERNS_13basic_ostreamIT_T0_EES7_PKS4_m
Ltmp293:
; %bb.47:                               ; %_ZNSt3__1lsINS_11char_traitsIcEEEERNS_13basic_ostreamIcT_EES6_PKc.exit54
                                        ;   in Loop: Header=BB19_42 Depth=2
	ldr	x8, [x21]
	ldr	w1, [x8, #8]
Ltmp294:
	bl	__ZNSt3__113basic_ostreamIcNS_11char_traitsIcEEElsEi
Ltmp295:
; %bb.48:                               ;   in Loop: Header=BB19_42 Depth=2
Ltmp296:
	mov	x1, x25
	mov	w2, #1
	bl	__ZNSt3__124__put_character_sequenceIcNS_11char_traitsIcEEEERNS_13basic_ostreamIT_T0_EES7_PKS4_m
Ltmp297:
; %bb.49:                               ; %_ZNSt3__1lsINS_11char_traitsIcEEEERNS_13basic_ostreamIcT_EES6_PKc.exit56
                                        ;   in Loop: Header=BB19_42 Depth=2
	ldr	x8, [x21]
	ldr	w1, [x8, #12]
Ltmp298:
	bl	__ZNSt3__113basic_ostreamIcNS_11char_traitsIcEEElsEi
Ltmp299:
; %bb.50:                               ;   in Loop: Header=BB19_42 Depth=2
Ltmp300:
	mov	x1, x25
	mov	w2, #1
	bl	__ZNSt3__124__put_character_sequenceIcNS_11char_traitsIcEEEERNS_13basic_ostreamIT_T0_EES7_PKS4_m
Ltmp301:
; %bb.51:                               ; %_ZNSt3__1lsINS_11char_traitsIcEEEERNS_13basic_ostreamIcT_EES6_PKc.exit58
                                        ;   in Loop: Header=BB19_42 Depth=2
Ltmp302:
	mov	x1, x27
	mov	w2, #1
	bl	__ZNSt3__124__put_character_sequenceIcNS_11char_traitsIcEEEERNS_13basic_ostreamIT_T0_EES7_PKS4_m
Ltmp303:
; %bb.52:                               ; %_ZNSt3__1lsINS_11char_traitsIcEEEERNS_13basic_ostreamIcT_EES6_PKc.exit60
                                        ;   in Loop: Header=BB19_42 Depth=2
	add	x21, x21, #24
	ldr	x8, [sp, #24]
	cmp	x21, x8
	b.lo	LBB19_42
LBB19_53:                               ; %._crit_edge
                                        ;   in Loop: Header=BB19_40 Depth=1
	ldr	x8, [x23]
	ldur	x8, [x8, #-24]
	add	x0, x23, x8
Ltmp305:
	sub	x8, x29, #96
	bl	__ZNKSt3__18ios_base6getlocEv
Ltmp306:
; %bb.54:                               ; %.noexc45
                                        ;   in Loop: Header=BB19_40 Depth=1
Ltmp307:
	sub	x0, x29, #96
	mov	x1, x26
	bl	__ZNKSt3__16locale9use_facetERNS0_2idE
Ltmp308:
; %bb.55:                               ;   in Loop: Header=BB19_40 Depth=1
	ldr	x8, [x0]
	ldr	x8, [x8, #56]
Ltmp309:
	mov	w1, #10
	blr	x8
Ltmp310:
; %bb.56:                               ; %_ZNSt3__14endlIcNS_11char_traitsIcEEEERNS_13basic_ostreamIT_T0_EES7_.exit.i
                                        ;   in Loop: Header=BB19_40 Depth=1
	mov	x28, x0
	sub	x0, x29, #96
	bl	__ZNSt3__16localeD1Ev
Ltmp312:
	mov	x0, x23
	mov	x1, x28
	bl	__ZNSt3__113basic_ostreamIcNS_11char_traitsIcEEE3putEc
Ltmp313:
; %bb.57:                               ; %.noexc48
                                        ;   in Loop: Header=BB19_40 Depth=1
Ltmp314:
	mov	x0, x23
	bl	__ZNSt3__113basic_ostreamIcNS_11char_traitsIcEEE5flushEv
Ltmp315:
; %bb.58:                               ; %_ZNSt3__113basic_ostreamIcNS_11char_traitsIcEEElsEPFRS3_S4_E.exit
                                        ;   in Loop: Header=BB19_40 Depth=1
	ldr	x21, [sp, #16]
	cbz	x21, LBB19_39
; %bb.59:                               ;   in Loop: Header=BB19_40 Depth=1
	ldr	x8, [sp, #24]
	cmp	x8, x21
	b.eq	LBB19_64
; %bb.60:                               ; %.lr.ph.i.i.i.i.i.preheader
                                        ;   in Loop: Header=BB19_40 Depth=1
	mov	x28, x8
	b	LBB19_62
LBB19_61:                               ; %_ZNSt3__116allocator_traitsINS_9allocatorINS_6vectorIiNS1_IiEEEEEEE7destroyIS4_vEEvRS5_PT_.exit.i.i.i.i.i
                                        ;   in Loop: Header=BB19_62 Depth=2
	mov	x8, x28
	cmp	x28, x21
	b.eq	LBB19_37
LBB19_62:                               ; %.lr.ph.i.i.i.i.i
                                        ;   Parent Loop BB19_40 Depth=1
                                        ; =>  This Inner Loop Header: Depth=2
	ldr	x0, [x28, #-24]!
	cbz	x0, LBB19_61
; %bb.63:                               ;   in Loop: Header=BB19_62 Depth=2
	stur	x0, [x8, #-16]
	bl	__ZdlPv
	b	LBB19_61
LBB19_64:                               ;   in Loop: Header=BB19_40 Depth=1
	mov	x0, x21
	b	LBB19_38
LBB19_65:                               ; %_ZNSt3__16vectorIiNS_9allocatorIiEEED1Ev.exit
	mov	x0, x20
	bl	__ZdlPv
	add	x0, sp, #80
	mov	w1, #0
	bl	__ZNK8nlohmann10basic_jsonINSt3__13mapENS1_6vectorENS1_12basic_stringIcNS1_11char_traitsIcEENS1_9allocatorIcEEEEbxydS7_NS_14adl_serializerENS3_IhNS7_IhEEEEE16assert_invariantEb
	ldrb	w1, [sp, #80]
Ltmp326:
	ldr	x0, [sp, #8]                    ; 8-byte Folded Reload
	bl	__ZN8nlohmann10basic_jsonINSt3__13mapENS1_6vectorENS1_12basic_stringIcNS1_11char_traitsIcEENS1_9allocatorIcEEEEbxydS7_NS_14adl_serializerENS3_IhNS7_IhEEEEE10json_value7destroyENS_6detail7value_tE
Ltmp327:
; %bb.66:                               ; %_ZN8nlohmann10basic_jsonINSt3__13mapENS1_6vectorENS1_12basic_stringIcNS1_11char_traitsIcEENS1_9allocatorIcEEEEbxydS7_NS_14adl_serializerENS3_IhNS7_IhEEEEED1Ev.exit44
	mov	x0, x19
	mov	w1, #0
	bl	__ZNK8nlohmann10basic_jsonINSt3__13mapENS1_6vectorENS1_12basic_stringIcNS1_11char_traitsIcEENS1_9allocatorIcEEEEbxydS7_NS_14adl_serializerENS3_IhNS7_IhEEEEE16assert_invariantEb
	add	x19, sp, #128
	add	x0, x19, #24
	ldrb	w1, [sp, #144]
Ltmp329:
	bl	__ZN8nlohmann10basic_jsonINSt3__13mapENS1_6vectorENS1_12basic_stringIcNS1_11char_traitsIcEENS1_9allocatorIcEEEEbxydS7_NS_14adl_serializerENS3_IhNS7_IhEEEEE10json_value7destroyENS_6detail7value_tE
Ltmp330:
; %bb.67:                               ; %_ZN8nlohmann10basic_jsonINSt3__13mapENS1_6vectorENS1_12basic_stringIcNS1_11char_traitsIcEENS1_9allocatorIcEEEEbxydS7_NS_14adl_serializerENS3_IhNS7_IhEEEEED1Ev.exit.i.i
	add	x0, sp, #128
	mov	w1, #0
	bl	__ZNK8nlohmann10basic_jsonINSt3__13mapENS1_6vectorENS1_12basic_stringIcNS1_11char_traitsIcEENS1_9allocatorIcEEEEbxydS7_NS_14adl_serializerENS3_IhNS7_IhEEEEE16assert_invariantEb
	orr	x0, x19, #0x8
	ldrb	w1, [sp, #128]
Ltmp332:
	bl	__ZN8nlohmann10basic_jsonINSt3__13mapENS1_6vectorENS1_12basic_stringIcNS1_11char_traitsIcEENS1_9allocatorIcEEEEbxydS7_NS_14adl_serializerENS3_IhNS7_IhEEEEE10json_value7destroyENS_6detail7value_tE
Ltmp333:
; %bb.68:                               ; %_ZN9ActionSetD1Ev.exit
	mov	w0, #0
	ldp	x29, x30, [sp, #256]            ; 16-byte Folded Reload
	ldp	x20, x19, [sp, #240]            ; 16-byte Folded Reload
	ldp	x22, x21, [sp, #224]            ; 16-byte Folded Reload
	ldp	x24, x23, [sp, #208]            ; 16-byte Folded Reload
	ldp	x26, x25, [sp, #192]            ; 16-byte Folded Reload
	ldp	x28, x27, [sp, #176]            ; 16-byte Folded Reload
	add	sp, sp, #272
	ret
LBB19_69:
Ltmp278:
Lloh89:
	adrp	x0, l___func__._ZN8nlohmann6detail9iter_implINS_10basic_jsonINSt3__13mapENS3_6vectorENS3_12basic_stringIcNS3_11char_traitsIcEENS3_9allocatorIcEEEEbxydS9_NS_14adl_serializerENS5_IhNS9_IhEEEEEEEppEv@PAGE
Lloh90:
	add	x0, x0, l___func__._ZN8nlohmann6detail9iter_implINS_10basic_jsonINSt3__13mapENS3_6vectorENS3_12basic_stringIcNS3_11char_traitsIcEENS3_9allocatorIcEEEEbxydS9_NS_14adl_serializerENS5_IhNS9_IhEEEEEEEppEv@PAGEOFF
Lloh91:
	adrp	x1, l_.str.12@PAGE
Lloh92:
	add	x1, x1, l_.str.12@PAGEOFF
Lloh93:
	adrp	x3, l_.str.97@PAGE
Lloh94:
	add	x3, x3, l_.str.97@PAGEOFF
	mov	w2, #11735
	bl	___assert_rtn
Ltmp279:
; %bb.70:                               ; %.noexc42
	brk	#0x1
LBB19_71:
Ltmp334:
	bl	___clang_call_terminate
LBB19_72:
Ltmp331:
	bl	___clang_call_terminate
LBB19_73:
Ltmp328:
	bl	___clang_call_terminate
LBB19_74:                               ; %_ZNSt3__113__vector_baseIiNS_9allocatorIiEEED2Ev.exit.i.i
Ltmp262:
	mov	x21, x0
	b	LBB19_100
LBB19_75:
Ltmp254:
	mov	x21, x0
	ldrsb	w8, [sp, #119]
	tbz	w8, #31, LBB19_101
; %bb.76:
	ldr	x0, [sp, #96]
	bl	__ZdlPv
	b	LBB19_101
LBB19_77:
Ltmp259:
	mov	x21, x0
	b	LBB19_101
LBB19_78:
Ltmp268:
	b	LBB19_98
LBB19_79:                               ; %_ZNSt3__110unique_ptrINS_6vectorIN8nlohmann10basic_jsonINS_3mapES1_NS_12basic_stringIcNS_11char_traitsIcEENS_9allocatorIcEEEEbxydS8_NS2_14adl_serializerENS1_IhNS8_IhEEEEEENS8_ISE_EEEEZNSE_6createISG_JNS_11__wrap_iterIPKiEESL_EEEPT_DpOT0_EUlPSG_E_ED1Ev.exit6.i.i.i.i.i.i.i
Ltmp274:
	mov	x21, x0
	mov	x0, x25
	b	LBB19_96
LBB19_80:
Ltmp271:
	b	LBB19_98
LBB19_81:
Ltmp277:
	bl	___clang_call_terminate
LBB19_82:
Ltmp265:
	b	LBB19_98
LBB19_83:
Ltmp283:
	b	LBB19_98
LBB19_84:
Ltmp311:
	mov	x21, x0
	sub	x0, x29, #96
	bl	__ZNSt3__16localeD1Ev
	b	LBB19_88
LBB19_85:
Ltmp316:
	b	LBB19_87
LBB19_86:
Ltmp304:
LBB19_87:                               ; %.body46
	mov	x21, x0
LBB19_88:                               ; %.body46
	ldr	x22, [sp, #16]
	cbz	x22, LBB19_99
; %bb.89:
	ldr	x8, [sp, #24]
	mov	x0, x22
	cmp	x8, x22
	b.eq	LBB19_95
; %bb.90:                               ; %.lr.ph.i.i.i.i.i66.preheader
	mov	x23, x8
	b	LBB19_92
LBB19_91:                               ; %_ZNSt3__116allocator_traitsINS_9allocatorINS_6vectorIiNS1_IiEEEEEEE7destroyIS4_vEEvRS5_PT_.exit.i.i.i.i.i68
                                        ;   in Loop: Header=BB19_92 Depth=1
	mov	x8, x23
	cmp	x23, x22
	b.eq	LBB19_94
LBB19_92:                               ; %.lr.ph.i.i.i.i.i66
                                        ; =>This Inner Loop Header: Depth=1
	ldr	x0, [x23, #-24]!
	cbz	x0, LBB19_91
; %bb.93:                               ;   in Loop: Header=BB19_92 Depth=1
	stur	x0, [x8, #-16]
	bl	__ZdlPv
	b	LBB19_91
LBB19_94:                               ; %_ZNSt3__113__vector_baseINS_6vectorIiNS_9allocatorIiEEEENS2_IS4_EEE5clearEv.exit.loopexit.i.i.i71
	ldr	x0, [sp, #16]
LBB19_95:                               ; %_ZNSt3__113__vector_baseINS_6vectorIiNS_9allocatorIiEEEENS2_IS4_EEE5clearEv.exit.i.i.i72
	str	x22, [sp, #24]
LBB19_96:                               ; %_ZNSt3__16vectorIiNS_9allocatorIiEEED1Ev.exit75
	bl	__ZdlPv
	b	LBB19_99
LBB19_97:
Ltmp280:
LBB19_98:                               ; %_ZNSt3__16vectorIiNS_9allocatorIiEEED1Ev.exit75
	mov	x21, x0
LBB19_99:                               ; %_ZNSt3__16vectorIiNS_9allocatorIiEEED1Ev.exit75
	mov	x0, x20
	bl	__ZdlPv
LBB19_100:
	add	x20, sp, #80
	add	x0, sp, #80
	mov	w1, #0
	bl	__ZNK8nlohmann10basic_jsonINSt3__13mapENS1_6vectorENS1_12basic_stringIcNS1_11char_traitsIcEENS1_9allocatorIcEEEEbxydS7_NS_14adl_serializerENS3_IhNS7_IhEEEEE16assert_invariantEb
	add	x0, x20, #8
	ldrb	w1, [sp, #80]
Ltmp317:
	bl	__ZN8nlohmann10basic_jsonINSt3__13mapENS1_6vectorENS1_12basic_stringIcNS1_11char_traitsIcEENS1_9allocatorIcEEEEbxydS7_NS_14adl_serializerENS3_IhNS7_IhEEEEE10json_value7destroyENS_6detail7value_tE
Ltmp318:
LBB19_101:                              ; %_ZNSt3__112basic_stringIcNS_11char_traitsIcEENS_9allocatorIcEEED1Ev.exit41
	mov	x0, x19
	mov	w1, #0
	bl	__ZNK8nlohmann10basic_jsonINSt3__13mapENS1_6vectorENS1_12basic_stringIcNS1_11char_traitsIcEENS1_9allocatorIcEEEEbxydS7_NS_14adl_serializerENS3_IhNS7_IhEEEEE16assert_invariantEb
	add	x19, sp, #128
	add	x0, x19, #24
	ldrb	w1, [sp, #144]
Ltmp320:
	bl	__ZN8nlohmann10basic_jsonINSt3__13mapENS1_6vectorENS1_12basic_stringIcNS1_11char_traitsIcEENS1_9allocatorIcEEEEbxydS7_NS_14adl_serializerENS3_IhNS7_IhEEEEE10json_value7destroyENS_6detail7value_tE
Ltmp321:
; %bb.102:                              ; %_ZN8nlohmann10basic_jsonINSt3__13mapENS1_6vectorENS1_12basic_stringIcNS1_11char_traitsIcEENS1_9allocatorIcEEEEbxydS7_NS_14adl_serializerENS3_IhNS7_IhEEEEED1Ev.exit.i.i77
	add	x0, sp, #128
	mov	w1, #0
	bl	__ZNK8nlohmann10basic_jsonINSt3__13mapENS1_6vectorENS1_12basic_stringIcNS1_11char_traitsIcEENS1_9allocatorIcEEEEbxydS7_NS_14adl_serializerENS3_IhNS7_IhEEEEE16assert_invariantEb
	orr	x0, x19, #0x8
	ldrb	w1, [sp, #128]
Ltmp323:
	bl	__ZN8nlohmann10basic_jsonINSt3__13mapENS1_6vectorENS1_12basic_stringIcNS1_11char_traitsIcEENS1_9allocatorIcEEEEbxydS7_NS_14adl_serializerENS3_IhNS7_IhEEEEE10json_value7destroyENS_6detail7value_tE
Ltmp324:
; %bb.103:                              ; %_ZN9ActionSetD1Ev.exit78
	mov	x0, x21
	bl	__Unwind_Resume
LBB19_104:
Ltmp325:
	bl	___clang_call_terminate
LBB19_105:
Ltmp322:
	bl	___clang_call_terminate
LBB19_106:
Ltmp319:
	bl	___clang_call_terminate
	.loh AdrpAddLdr	Lloh74, Lloh75, Lloh76
	.loh AdrpAdd	Lloh77, Lloh78
	.loh AdrpAdd	Lloh87, Lloh88
	.loh AdrpLdrGot	Lloh85, Lloh86
	.loh AdrpAdd	Lloh83, Lloh84
	.loh AdrpAdd	Lloh81, Lloh82
	.loh AdrpLdrGot	Lloh79, Lloh80
	.loh AdrpAdd	Lloh93, Lloh94
	.loh AdrpAdd	Lloh91, Lloh92
	.loh AdrpAdd	Lloh89, Lloh90
Lfunc_end12:
	.cfi_endproc
	.section	__TEXT,__gcc_except_tab
	.p2align	2
GCC_except_table19:
Lexception12:
	.byte	255                             ; @LPStart Encoding = omit
	.byte	155                             ; @TType Encoding = indirect pcrel sdata4
	.uleb128 Lttbase6-Lttbaseref6
Lttbaseref6:
	.byte	1                               ; Call site Encoding = uleb128
	.uleb128 Lcst_end12-Lcst_begin12
Lcst_begin12:
	.uleb128 Ltmp252-Lfunc_begin12          ; >> Call Site 1 <<
	.uleb128 Ltmp253-Ltmp252                ;   Call between Ltmp252 and Ltmp253
	.uleb128 Ltmp254-Lfunc_begin12          ;     jumps to Ltmp254
	.byte	0                               ;   On action: cleanup
	.uleb128 Ltmp255-Lfunc_begin12          ; >> Call Site 2 <<
	.uleb128 Ltmp258-Ltmp255                ;   Call between Ltmp255 and Ltmp258
	.uleb128 Ltmp259-Lfunc_begin12          ;     jumps to Ltmp259
	.byte	0                               ;   On action: cleanup
	.uleb128 Ltmp260-Lfunc_begin12          ; >> Call Site 3 <<
	.uleb128 Ltmp261-Ltmp260                ;   Call between Ltmp260 and Ltmp261
	.uleb128 Ltmp262-Lfunc_begin12          ;     jumps to Ltmp262
	.byte	0                               ;   On action: cleanup
	.uleb128 Ltmp263-Lfunc_begin12          ; >> Call Site 4 <<
	.uleb128 Ltmp264-Ltmp263                ;   Call between Ltmp263 and Ltmp264
	.uleb128 Ltmp265-Lfunc_begin12          ;     jumps to Ltmp265
	.byte	0                               ;   On action: cleanup
	.uleb128 Ltmp266-Lfunc_begin12          ; >> Call Site 5 <<
	.uleb128 Ltmp267-Ltmp266                ;   Call between Ltmp266 and Ltmp267
	.uleb128 Ltmp268-Lfunc_begin12          ;     jumps to Ltmp268
	.byte	0                               ;   On action: cleanup
	.uleb128 Ltmp269-Lfunc_begin12          ; >> Call Site 6 <<
	.uleb128 Ltmp270-Ltmp269                ;   Call between Ltmp269 and Ltmp270
	.uleb128 Ltmp271-Lfunc_begin12          ;     jumps to Ltmp271
	.byte	0                               ;   On action: cleanup
	.uleb128 Ltmp272-Lfunc_begin12          ; >> Call Site 7 <<
	.uleb128 Ltmp273-Ltmp272                ;   Call between Ltmp272 and Ltmp273
	.uleb128 Ltmp274-Lfunc_begin12          ;     jumps to Ltmp274
	.byte	0                               ;   On action: cleanup
	.uleb128 Ltmp275-Lfunc_begin12          ; >> Call Site 8 <<
	.uleb128 Ltmp276-Ltmp275                ;   Call between Ltmp275 and Ltmp276
	.uleb128 Ltmp277-Lfunc_begin12          ;     jumps to Ltmp277
	.byte	1                               ;   On action: 1
	.uleb128 Ltmp281-Lfunc_begin12          ; >> Call Site 9 <<
	.uleb128 Ltmp282-Ltmp281                ;   Call between Ltmp281 and Ltmp282
	.uleb128 Ltmp283-Lfunc_begin12          ;     jumps to Ltmp283
	.byte	0                               ;   On action: cleanup
	.uleb128 Ltmp284-Lfunc_begin12          ; >> Call Site 10 <<
	.uleb128 Ltmp303-Ltmp284                ;   Call between Ltmp284 and Ltmp303
	.uleb128 Ltmp304-Lfunc_begin12          ;     jumps to Ltmp304
	.byte	0                               ;   On action: cleanup
	.uleb128 Ltmp305-Lfunc_begin12          ; >> Call Site 11 <<
	.uleb128 Ltmp306-Ltmp305                ;   Call between Ltmp305 and Ltmp306
	.uleb128 Ltmp316-Lfunc_begin12          ;     jumps to Ltmp316
	.byte	0                               ;   On action: cleanup
	.uleb128 Ltmp307-Lfunc_begin12          ; >> Call Site 12 <<
	.uleb128 Ltmp310-Ltmp307                ;   Call between Ltmp307 and Ltmp310
	.uleb128 Ltmp311-Lfunc_begin12          ;     jumps to Ltmp311
	.byte	0                               ;   On action: cleanup
	.uleb128 Ltmp312-Lfunc_begin12          ; >> Call Site 13 <<
	.uleb128 Ltmp315-Ltmp312                ;   Call between Ltmp312 and Ltmp315
	.uleb128 Ltmp316-Lfunc_begin12          ;     jumps to Ltmp316
	.byte	0                               ;   On action: cleanup
	.uleb128 Ltmp326-Lfunc_begin12          ; >> Call Site 14 <<
	.uleb128 Ltmp327-Ltmp326                ;   Call between Ltmp326 and Ltmp327
	.uleb128 Ltmp328-Lfunc_begin12          ;     jumps to Ltmp328
	.byte	1                               ;   On action: 1
	.uleb128 Ltmp329-Lfunc_begin12          ; >> Call Site 15 <<
	.uleb128 Ltmp330-Ltmp329                ;   Call between Ltmp329 and Ltmp330
	.uleb128 Ltmp331-Lfunc_begin12          ;     jumps to Ltmp331
	.byte	1                               ;   On action: 1
	.uleb128 Ltmp332-Lfunc_begin12          ; >> Call Site 16 <<
	.uleb128 Ltmp333-Ltmp332                ;   Call between Ltmp332 and Ltmp333
	.uleb128 Ltmp334-Lfunc_begin12          ;     jumps to Ltmp334
	.byte	1                               ;   On action: 1
	.uleb128 Ltmp278-Lfunc_begin12          ; >> Call Site 17 <<
	.uleb128 Ltmp279-Ltmp278                ;   Call between Ltmp278 and Ltmp279
	.uleb128 Ltmp280-Lfunc_begin12          ;     jumps to Ltmp280
	.byte	0                               ;   On action: cleanup
	.uleb128 Ltmp317-Lfunc_begin12          ; >> Call Site 18 <<
	.uleb128 Ltmp318-Ltmp317                ;   Call between Ltmp317 and Ltmp318
	.uleb128 Ltmp319-Lfunc_begin12          ;     jumps to Ltmp319
	.byte	1                               ;   On action: 1
	.uleb128 Ltmp320-Lfunc_begin12          ; >> Call Site 19 <<
	.uleb128 Ltmp321-Ltmp320                ;   Call between Ltmp320 and Ltmp321
	.uleb128 Ltmp322-Lfunc_begin12          ;     jumps to Ltmp322
	.byte	1                               ;   On action: 1
	.uleb128 Ltmp323-Lfunc_begin12          ; >> Call Site 20 <<
	.uleb128 Ltmp324-Ltmp323                ;   Call between Ltmp323 and Ltmp324
	.uleb128 Ltmp325-Lfunc_begin12          ;     jumps to Ltmp325
	.byte	1                               ;   On action: 1
	.uleb128 Ltmp324-Lfunc_begin12          ; >> Call Site 21 <<
	.uleb128 Lfunc_end12-Ltmp324            ;   Call between Ltmp324 and Lfunc_end12
	.byte	0                               ;     has no landing pad
	.byte	0                               ;   On action: cleanup
Lcst_end12:
	.byte	1                               ; >> Action Record 1 <<
                                        ;   Catch TypeInfo 1
	.byte	0                               ;   No further actions
	.p2align	2
                                        ; >> Catch TypeInfos <<
	.long	0                               ; TypeInfo 1
Lttbase6:
	.p2align	2
                                        ; -- End function
	.section	__TEXT,__literal16,16byte_literals
	.p2align	4                               ; -- Begin function _ZNK8nlohmann6detail9iter_implINS_10basic_jsonINSt3__13mapENS3_6vectorENS3_12basic_stringIcNS3_11char_traitsIcEENS3_9allocatorIcEEEEbxydS9_NS_14adl_serializerENS5_IhNS9_IhEEEEEEEltERKSG_
lCPI20_0:
	.quad	48                              ; 0x30
	.quad	-9223372036854775744            ; 0x8000000000000040
lCPI20_1:
	.quad	40                              ; 0x28
	.quad	-9223372036854775760            ; 0x8000000000000030
	.section	__TEXT,__text,regular,pure_instructions
	.globl	__ZNK8nlohmann6detail9iter_implINS_10basic_jsonINSt3__13mapENS3_6vectorENS3_12basic_stringIcNS3_11char_traitsIcEENS3_9allocatorIcEEEEbxydS9_NS_14adl_serializerENS5_IhNS9_IhEEEEEEEltERKSG_
	.weak_def_can_be_hidden	__ZNK8nlohmann6detail9iter_implINS_10basic_jsonINSt3__13mapENS3_6vectorENS3_12basic_stringIcNS3_11char_traitsIcEENS3_9allocatorIcEEEEbxydS9_NS_14adl_serializerENS5_IhNS9_IhEEEEEEEltERKSG_
	.p2align	2
__ZNK8nlohmann6detail9iter_implINS_10basic_jsonINSt3__13mapENS3_6vectorENS3_12basic_stringIcNS3_11char_traitsIcEENS3_9allocatorIcEEEEbxydS9_NS_14adl_serializerENS5_IhNS9_IhEEEEEEEltERKSG_: ; @_ZNK8nlohmann6detail9iter_implINS_10basic_jsonINSt3__13mapENS3_6vectorENS3_12basic_stringIcNS3_11char_traitsIcEENS3_9allocatorIcEEEEbxydS9_NS_14adl_serializerENS5_IhNS9_IhEEEEEEEltERKSG_
Lfunc_begin13:
	.cfi_startproc
	.cfi_personality 155, ___gxx_personality_v0
	.cfi_lsda 16, Lexception13
; %bb.0:
	sub	sp, sp, #80
	stp	x22, x21, [sp, #32]             ; 16-byte Folded Spill
	stp	x20, x19, [sp, #48]             ; 16-byte Folded Spill
	stp	x29, x30, [sp, #64]             ; 16-byte Folded Spill
	add	x29, sp, #64
	.cfi_def_cfa w29, 16
	.cfi_offset w30, -8
	.cfi_offset w29, -16
	.cfi_offset w19, -24
	.cfi_offset w20, -32
	.cfi_offset w21, -40
	.cfi_offset w22, -48
	mov	x20, x0
	ldr	x8, [x0]
	ldr	x9, [x1]
	cmp	x8, x9
	b.ne	LBB20_6
; %bb.1:
	cbz	x8, LBB20_9
; %bb.2:
	ldrb	w8, [x8]
	cmp	w8, #2
	b.eq	LBB20_5
; %bb.3:
	cmp	w8, #1
	b.eq	LBB20_10
; %bb.4:
	ldr	x8, [x20, #24]
	ldr	x9, [x1, #24]
	cmp	x8, x9
	cset	w0, lt
	ldp	x29, x30, [sp, #64]             ; 16-byte Folded Reload
	ldp	x20, x19, [sp, #48]             ; 16-byte Folded Reload
	ldp	x22, x21, [sp, #32]             ; 16-byte Folded Reload
	add	sp, sp, #80
	ret
LBB20_5:
	ldr	x8, [x20, #16]
	ldr	x9, [x1, #16]
	cmp	x8, x9
	cset	w0, lo
	ldp	x29, x30, [sp, #64]             ; 16-byte Folded Reload
	ldp	x20, x19, [sp, #48]             ; 16-byte Folded Reload
	ldp	x22, x21, [sp, #32]             ; 16-byte Folded Reload
	add	sp, sp, #80
	ret
LBB20_6:                                ; %.thread.i.i.i
	mov	w0, #32
	bl	___cxa_allocate_exception
	mov	x19, x0
Ltmp335:
	mov	w0, #64
	bl	__Znwm
Ltmp336:
; %bb.7:                                ; %.noexc24
	str	x0, [sp, #8]
Lloh95:
	adrp	x8, lCPI20_0@PAGE
Lloh96:
	ldr	q0, [x8, lCPI20_0@PAGEOFF]
	stur	q0, [sp, #16]
Lloh97:
	adrp	x8, l_.str.96@PAGE
Lloh98:
	add	x8, x8, l_.str.96@PAGEOFF
	ldp	q0, q1, [x8]
	stp	q0, q1, [x0]
	ldr	q0, [x8, #32]
	str	q0, [x0, #32]
	strb	wzr, [x0, #48]
	ldr	x2, [x20]
	mov	w21, #1
Ltmp338:
	add	x1, sp, #8
	mov	x8, x19
	mov	w0, #212
	bl	__ZN8nlohmann6detail16invalid_iterator6createINS_10basic_jsonINSt3__13mapENS4_6vectorENS4_12basic_stringIcNS4_11char_traitsIcEENS4_9allocatorIcEEEEbxydSA_NS_14adl_serializerENS6_IhNSA_IhEEEEEEEES1_iRKSC_RKT_
Ltmp339:
; %bb.8:
Ltmp340:
	mov	w21, #0
Lloh99:
	adrp	x1, __ZTIN8nlohmann6detail16invalid_iteratorE@PAGE
Lloh100:
	add	x1, x1, __ZTIN8nlohmann6detail16invalid_iteratorE@PAGEOFF
Lloh101:
	adrp	x2, __ZN8nlohmann6detail16invalid_iteratorD1Ev@GOTPAGE
Lloh102:
	ldr	x2, [x2, __ZN8nlohmann6detail16invalid_iteratorD1Ev@GOTPAGEOFF]
	mov	x0, x19
	bl	___cxa_throw
Ltmp341:
	b	LBB20_13
LBB20_9:                                ; %codeRepl
	bl	__ZNK8nlohmann6detail9iter_implINS_10basic_jsonINSt3__13mapENS3_6vectorENS3_12basic_stringIcNS3_11char_traitsIcEENS3_9allocatorIcEEEEbxydS9_NS_14adl_serializerENS5_IhNS9_IhEEEEEEEltERKSG_.cold.1
LBB20_10:                               ; %.thread.i.i.i25
	mov	w0, #32
	bl	___cxa_allocate_exception
	mov	x19, x0
Ltmp343:
	mov	w0, #48
	bl	__Znwm
Ltmp344:
; %bb.11:                               ; %.noexc29
	str	x0, [sp, #8]
Lloh103:
	adrp	x8, lCPI20_1@PAGE
Lloh104:
	ldr	q0, [x8, lCPI20_1@PAGEOFF]
	stur	q0, [sp, #16]
Lloh105:
	adrp	x8, l_.str.146@PAGE
Lloh106:
	add	x8, x8, l_.str.146@PAGEOFF
	ldp	q0, q1, [x8]
	stp	q0, q1, [x0]
	ldr	x8, [x8, #32]
	str	x8, [x0, #32]
	strb	wzr, [x0, #40]
	ldr	x2, [x20]
	mov	w21, #1
Ltmp346:
	add	x1, sp, #8
	mov	x8, x19
	mov	w0, #213
	bl	__ZN8nlohmann6detail16invalid_iterator6createINS_10basic_jsonINSt3__13mapENS4_6vectorENS4_12basic_stringIcNS4_11char_traitsIcEENS4_9allocatorIcEEEEbxydSA_NS_14adl_serializerENS6_IhNSA_IhEEEEEEEES1_iRKSC_RKT_
Ltmp347:
; %bb.12:
Ltmp348:
	mov	w21, #0
Lloh107:
	adrp	x1, __ZTIN8nlohmann6detail16invalid_iteratorE@PAGE
Lloh108:
	add	x1, x1, __ZTIN8nlohmann6detail16invalid_iteratorE@PAGEOFF
Lloh109:
	adrp	x2, __ZN8nlohmann6detail16invalid_iteratorD1Ev@GOTPAGE
Lloh110:
	ldr	x2, [x2, __ZN8nlohmann6detail16invalid_iteratorD1Ev@GOTPAGEOFF]
	mov	x0, x19
	bl	___cxa_throw
Ltmp349:
LBB20_13:
	brk	#0x1
LBB20_14:
Ltmp350:
	mov	x20, x0
	ldrsb	w8, [sp, #31]
	tbnz	w8, #31, LBB20_17
	b	LBB20_18
LBB20_15:                               ; %_ZNSt3__112basic_stringIcNS_11char_traitsIcEENS_9allocatorIcEEED1Ev.exit31.thread
Ltmp345:
	b	LBB20_20
LBB20_16:
Ltmp342:
	mov	x20, x0
	ldrsb	w8, [sp, #31]
	tbz	w8, #31, LBB20_18
LBB20_17:
	ldr	x0, [sp, #8]
	bl	__ZdlPv
LBB20_18:                               ; %_ZNSt3__112basic_stringIcNS_11char_traitsIcEENS_9allocatorIcEEED1Ev.exit
	tbnz	w21, #0, LBB20_21
	b	LBB20_22
LBB20_19:                               ; %_ZNSt3__112basic_stringIcNS_11char_traitsIcEENS_9allocatorIcEEED1Ev.exit.thread
Ltmp337:
LBB20_20:                               ; %.sink.split
	mov	x20, x0
LBB20_21:                               ; %.sink.split
	mov	x0, x19
	bl	___cxa_free_exception
LBB20_22:
	mov	x0, x20
	bl	__Unwind_Resume
	.loh AdrpAdd	Lloh97, Lloh98
	.loh AdrpAdrp	Lloh95, Lloh97
	.loh AdrpLdr	Lloh95, Lloh96
	.loh AdrpLdrGot	Lloh101, Lloh102
	.loh AdrpAdd	Lloh99, Lloh100
	.loh AdrpAdd	Lloh105, Lloh106
	.loh AdrpAdrp	Lloh103, Lloh105
	.loh AdrpLdr	Lloh103, Lloh104
	.loh AdrpLdrGot	Lloh109, Lloh110
	.loh AdrpAdd	Lloh107, Lloh108
Lfunc_end13:
	.cfi_endproc
	.section	__TEXT,__gcc_except_tab
	.p2align	2
GCC_except_table20:
Lexception13:
	.byte	255                             ; @LPStart Encoding = omit
	.byte	255                             ; @TType Encoding = omit
	.byte	1                               ; Call site Encoding = uleb128
	.uleb128 Lcst_end13-Lcst_begin13
Lcst_begin13:
	.uleb128 Lfunc_begin13-Lfunc_begin13    ; >> Call Site 1 <<
	.uleb128 Ltmp335-Lfunc_begin13          ;   Call between Lfunc_begin13 and Ltmp335
	.byte	0                               ;     has no landing pad
	.byte	0                               ;   On action: cleanup
	.uleb128 Ltmp335-Lfunc_begin13          ; >> Call Site 2 <<
	.uleb128 Ltmp336-Ltmp335                ;   Call between Ltmp335 and Ltmp336
	.uleb128 Ltmp337-Lfunc_begin13          ;     jumps to Ltmp337
	.byte	0                               ;   On action: cleanup
	.uleb128 Ltmp338-Lfunc_begin13          ; >> Call Site 3 <<
	.uleb128 Ltmp341-Ltmp338                ;   Call between Ltmp338 and Ltmp341
	.uleb128 Ltmp342-Lfunc_begin13          ;     jumps to Ltmp342
	.byte	0                               ;   On action: cleanup
	.uleb128 Ltmp341-Lfunc_begin13          ; >> Call Site 4 <<
	.uleb128 Ltmp343-Ltmp341                ;   Call between Ltmp341 and Ltmp343
	.byte	0                               ;     has no landing pad
	.byte	0                               ;   On action: cleanup
	.uleb128 Ltmp343-Lfunc_begin13          ; >> Call Site 5 <<
	.uleb128 Ltmp344-Ltmp343                ;   Call between Ltmp343 and Ltmp344
	.uleb128 Ltmp345-Lfunc_begin13          ;     jumps to Ltmp345
	.byte	0                               ;   On action: cleanup
	.uleb128 Ltmp346-Lfunc_begin13          ; >> Call Site 6 <<
	.uleb128 Ltmp349-Ltmp346                ;   Call between Ltmp346 and Ltmp349
	.uleb128 Ltmp350-Lfunc_begin13          ;     jumps to Ltmp350
	.byte	0                               ;   On action: cleanup
	.uleb128 Ltmp349-Lfunc_begin13          ; >> Call Site 7 <<
	.uleb128 Lfunc_end13-Ltmp349            ;   Call between Ltmp349 and Lfunc_end13
	.byte	0                               ;     has no landing pad
	.byte	0                               ;   On action: cleanup
Lcst_end13:
	.p2align	2
                                        ; -- End function
	.section	__TEXT,__text,regular,pure_instructions
	.globl	__ZN8nlohmanneqERKNS_10basic_jsonINSt3__13mapENS1_6vectorENS1_12basic_stringIcNS1_11char_traitsIcEENS1_9allocatorIcEEEEbxydS7_NS_14adl_serializerENS3_IhNS7_IhEEEEEESF_ ; -- Begin function _ZN8nlohmanneqERKNS_10basic_jsonINSt3__13mapENS1_6vectorENS1_12basic_stringIcNS1_11char_traitsIcEENS1_9allocatorIcEEEEbxydS7_NS_14adl_serializerENS3_IhNS7_IhEEEEEESF_
	.weak_def_can_be_hidden	__ZN8nlohmanneqERKNS_10basic_jsonINSt3__13mapENS1_6vectorENS1_12basic_stringIcNS1_11char_traitsIcEENS1_9allocatorIcEEEEbxydS7_NS_14adl_serializerENS3_IhNS7_IhEEEEEESF_
	.p2align	2
__ZN8nlohmanneqERKNS_10basic_jsonINSt3__13mapENS1_6vectorENS1_12basic_stringIcNS1_11char_traitsIcEENS1_9allocatorIcEEEEbxydS7_NS_14adl_serializerENS3_IhNS7_IhEEEEEESF_: ; @_ZN8nlohmanneqERKNS_10basic_jsonINSt3__13mapENS1_6vectorENS1_12basic_stringIcNS1_11char_traitsIcEENS1_9allocatorIcEEEEbxydS7_NS_14adl_serializerENS3_IhNS7_IhEEEEEESF_
	.cfi_startproc
; %bb.0:
	stp	x22, x21, [sp, #-48]!           ; 16-byte Folded Spill
	stp	x20, x19, [sp, #16]             ; 16-byte Folded Spill
	stp	x29, x30, [sp, #32]             ; 16-byte Folded Spill
	add	x29, sp, #32
	.cfi_def_cfa w29, 16
	.cfi_offset w30, -8
	.cfi_offset w29, -16
	.cfi_offset w19, -24
	.cfi_offset w20, -32
	.cfi_offset w21, -40
	.cfi_offset w22, -48
	mov	x8, x0
	ldrb	w9, [x0]
	ldrb	w10, [x1]
	cmp	w9, w10
	b.ne	LBB21_4
; %bb.1:
	cmp	w9, #8
	b.hi	LBB21_59
; %bb.2:
	mov	w0, #1
	mov	w9, w9
Lloh111:
	adrp	x10, lJTI21_0@PAGE
Lloh112:
	add	x10, x10, lJTI21_0@PAGEOFF
	adr	x11, LBB21_3
	ldrb	w12, [x10, x9]
	add	x11, x11, x12, lsl #2
	br	x11
LBB21_3:
	ldr	x8, [x8, #8]
	ldr	x9, [x1, #8]
	cmp	x8, x9
	b	LBB21_14
LBB21_4:
	cmp	w9, #5
	ccmp	w10, #7, #0, eq
	b.eq	LBB21_10
; %bb.5:
	cmp	w9, #7
	ccmp	w10, #5, #0, eq
	b.eq	LBB21_11
; %bb.6:
	cmp	w9, #6
	ccmp	w10, #7, #0, eq
	b.eq	LBB21_12
; %bb.7:
	cmp	w9, #7
	b.ne	LBB21_60
; %bb.8:
	cmp	w10, #6
	b.ne	LBB21_60
; %bb.9:
	ldr	d0, [x8, #8]
	ldr	d1, [x1, #8]
	ucvtf	d1, d1
	fcmp	d0, d1
	b	LBB21_14
LBB21_10:
	ldr	d0, [x8, #8]
	scvtf	d0, d0
	b	LBB21_13
LBB21_11:
	ldr	d0, [x8, #8]
	ldr	d1, [x1, #8]
	scvtf	d1, d1
	fcmp	d0, d1
	b	LBB21_14
LBB21_12:
	ldr	d0, [x8, #8]
	ucvtf	d0, d0
LBB21_13:                               ; %_ZNSt3__1eqIN8nlohmann10basic_jsonINS_3mapENS_6vectorENS_12basic_stringIcNS_11char_traitsIcEENS_9allocatorIcEEEEbxydS8_NS1_14adl_serializerENS4_IhNS8_IhEEEEEENS8_ISE_EEEEbRKNS4_IT_T0_EESK_.exit
	ldr	d1, [x1, #8]
	fcmp	d1, d0
LBB21_14:                               ; %_ZNSt3__1eqIN8nlohmann10basic_jsonINS_3mapENS_6vectorENS_12basic_stringIcNS_11char_traitsIcEENS_9allocatorIcEEEEbxydS8_NS1_14adl_serializerENS4_IhNS8_IhEEEEEENS8_ISE_EEEEbRKNS4_IT_T0_EESK_.exit
	cset	w0, eq
LBB21_15:                               ; %_ZNSt3__1eqIN8nlohmann10basic_jsonINS_3mapENS_6vectorENS_12basic_stringIcNS_11char_traitsIcEENS_9allocatorIcEEEEbxydS8_NS1_14adl_serializerENS4_IhNS8_IhEEEEEENS8_ISE_EEEEbRKNS4_IT_T0_EESK_.exit
	ldp	x29, x30, [sp, #32]             ; 16-byte Folded Reload
	ldp	x20, x19, [sp, #16]             ; 16-byte Folded Reload
	ldp	x22, x21, [sp], #48             ; 16-byte Folded Reload
	ret
LBB21_16:
	ldr	x19, [x8, #8]
	ldr	x8, [x1, #8]
	ldr	x9, [x19, #16]
	ldr	x10, [x8, #16]
	cmp	x9, x10
	b.ne	LBB21_59
; %bb.17:
	ldr	x20, [x19], #8
	cmp	x20, x19
	b.eq	LBB21_66
; %bb.18:                               ; %.lr.ph95.preheader
	ldr	x21, [x8]
LBB21_19:                               ; %.lr.ph95
                                        ; =>This Loop Header: Depth=1
                                        ;     Child Loop BB21_24 Depth 2
                                        ;     Child Loop BB21_30 Depth 2
                                        ;     Child Loop BB21_32 Depth 2
                                        ;     Child Loop BB21_35 Depth 2
                                        ;     Child Loop BB21_37 Depth 2
	ldrb	w8, [x20, #55]
	sxtb	w9, w8
	ldr	x10, [x20, #40]
	cmp	w9, #0
	csel	x2, x10, x8, lt
	ldrb	w10, [x21, #55]
	sxtb	w9, w10
	ldr	x11, [x21, #40]
	cmp	w9, #0
	csel	x10, x11, x10, lt
	cmp	x2, x10
	b.ne	LBB21_59
; %bb.20:                               ; %_ZNKSt3__112basic_stringIcNS_11char_traitsIcEENS_9allocatorIcEEE4dataEv.exit27.i.i
                                        ;   in Loop: Header=BB21_19 Depth=1
	add	x11, x20, #32
	add	x12, x21, #32
	sxtb	w13, w8
	ldr	x10, [x11]
	cmp	w13, #0
	csel	x0, x10, x11, lt
	ldr	x11, [x12]
	cmp	w9, #0
	csel	x1, x11, x12, lt
	tbnz	w8, #7, LBB21_26
; %bb.21:                               ; %.preheader.i.i
                                        ;   in Loop: Header=BB21_19 Depth=1
	cbz	x2, LBB21_28
; %bb.22:                               ; %.lr.ph.i.i.preheader
                                        ;   in Loop: Header=BB21_19 Depth=1
	ldrb	w9, [x1]
	cmp	w9, w10, uxtb
	b.ne	LBB21_59
; %bb.23:                               ; %.lr.ph128.preheader
                                        ;   in Loop: Header=BB21_19 Depth=1
	sub	x8, x8, #1
	add	x9, x20, #33
	add	x10, x1, #1
LBB21_24:                               ; %.lr.ph128
                                        ;   Parent Loop BB21_19 Depth=1
                                        ; =>  This Inner Loop Header: Depth=2
	cbz	x8, LBB21_28
; %bb.25:                               ; %..lr.ph.i.i_crit_edge
                                        ;   in Loop: Header=BB21_24 Depth=2
	mov	w0, #0
	ldrb	w11, [x9], #1
	ldrb	w12, [x10], #1
	sub	x8, x8, #1
	cmp	w11, w12
	b.eq	LBB21_24
	b	LBB21_15
LBB21_26:                               ;   in Loop: Header=BB21_19 Depth=1
	cbz	x2, LBB21_28
; %bb.27:                               ; %_ZNSt3__1eqINS_9allocatorIcEEEEbRKNS_12basic_stringIcNS_11char_traitsIcEET_EES9_.exit.i
                                        ;   in Loop: Header=BB21_19 Depth=1
	bl	_memcmp
	cbnz	w0, LBB21_59
LBB21_28:                               ; %_ZNSt3__1eqIKNS_12basic_stringIcNS_11char_traitsIcEENS_9allocatorIcEEEEN8nlohmann10basic_jsonINS_3mapENS_6vectorES6_bxydS4_NS8_14adl_serializerENSB_IhNS4_IhEEEEEEEEbRKNS_4pairIT_T0_EESL_.exit
                                        ;   in Loop: Header=BB21_19 Depth=1
	add	x0, x20, #56
	add	x1, x21, #56
	bl	__ZN8nlohmanneqERKNS_10basic_jsonINSt3__13mapENS1_6vectorENS1_12basic_stringIcNS1_11char_traitsIcEENS1_9allocatorIcEEEEbxydS7_NS_14adl_serializerENS3_IhNS7_IhEEEEEESF_
	cbz	w0, LBB21_15
; %bb.29:                               ;   in Loop: Header=BB21_19 Depth=1
	ldr	x8, [x20, #8]
	cbz	x8, LBB21_31
LBB21_30:                               ; %.preheader8.i.i.i.i
                                        ;   Parent Loop BB21_19 Depth=1
                                        ; =>  This Inner Loop Header: Depth=2
	mov	x20, x8
	ldr	x8, [x8]
	cbnz	x8, LBB21_30
	b	LBB21_34
LBB21_31:                               ; %.preheader.i.i.i.i
                                        ;   in Loop: Header=BB21_19 Depth=1
	mov	x8, x20
	ldr	x9, [x8, #16]!
	ldr	x10, [x9]
	cmp	x10, x20
	b.eq	LBB21_33
LBB21_32:                               ; %.lr.ph.i.i.i.i
                                        ;   Parent Loop BB21_19 Depth=1
                                        ; =>  This Inner Loop Header: Depth=2
	ldr	x9, [x8]
	mov	x8, x9
	ldr	x20, [x8, #16]!
	ldr	x10, [x20]
	cmp	x10, x9
	b.ne	LBB21_32
	b	LBB21_34
LBB21_33:                               ;   in Loop: Header=BB21_19 Depth=1
	mov	x20, x9
LBB21_34:                               ; %_ZNSt3__120__map_const_iteratorINS_21__tree_const_iteratorINS_12__value_typeINS_12basic_stringIcNS_11char_traitsIcEENS_9allocatorIcEEEEN8nlohmann10basic_jsonINS_3mapENS_6vectorES8_bxydS6_NS9_14adl_serializerENSC_IhNS6_IhEEEEEEEEPNS_11__tree_nodeISH_PvEElEEEppEv.exit.i
                                        ;   in Loop: Header=BB21_19 Depth=1
	ldr	x8, [x21, #8]
	cbz	x8, LBB21_36
LBB21_35:                               ; %.preheader8.i.i.i5.i
                                        ;   Parent Loop BB21_19 Depth=1
                                        ; =>  This Inner Loop Header: Depth=2
	mov	x21, x8
	ldr	x8, [x8]
	cbnz	x8, LBB21_35
	b	LBB21_39
LBB21_36:                               ; %.preheader.i.i.i2.i
                                        ;   in Loop: Header=BB21_19 Depth=1
	mov	x8, x21
	ldr	x9, [x8, #16]!
	ldr	x10, [x9]
	cmp	x10, x21
	b.eq	LBB21_38
LBB21_37:                               ; %.lr.ph.i.i.i7.i
                                        ;   Parent Loop BB21_19 Depth=1
                                        ; =>  This Inner Loop Header: Depth=2
	ldr	x9, [x8]
	mov	x8, x9
	ldr	x21, [x8, #16]!
	ldr	x10, [x21]
	cmp	x10, x9
	b.ne	LBB21_37
	b	LBB21_39
LBB21_38:                               ;   in Loop: Header=BB21_19 Depth=1
	mov	x21, x9
LBB21_39:                               ; %_ZNSt3__120__map_const_iteratorINS_21__tree_const_iteratorINS_12__value_typeINS_12basic_stringIcNS_11char_traitsIcEENS_9allocatorIcEEEEN8nlohmann10basic_jsonINS_3mapENS_6vectorES8_bxydS6_NS9_14adl_serializerENSC_IhNS6_IhEEEEEEEEPNS_11__tree_nodeISH_PvEElEEEppEv.exit9.i
                                        ;   in Loop: Header=BB21_19 Depth=1
	mov	w0, #1
	cmp	x20, x19
	b.ne	LBB21_19
	b	LBB21_15
LBB21_40:
	ldr	x8, [x8, #8]
	ldr	x9, [x1, #8]
	ldp	x19, x21, [x8]
	sub	x8, x21, x19
	ldp	x20, x9, [x9]
	sub	x9, x9, x20
	cmp	x8, x9
	b.ne	LBB21_59
; %bb.41:                               ; %.preheader
	cmp	x19, x21
	b.eq	LBB21_66
LBB21_42:                               ; %.lr.ph
                                        ; =>This Inner Loop Header: Depth=1
	mov	x0, x19
	mov	x1, x20
	bl	__ZN8nlohmanneqERKNS_10basic_jsonINSt3__13mapENS1_6vectorENS1_12basic_stringIcNS1_11char_traitsIcEENS1_9allocatorIcEEEEbxydS7_NS_14adl_serializerENS3_IhNS7_IhEEEEEESF_
	cbz	w0, LBB21_15
; %bb.43:                               ;   in Loop: Header=BB21_42 Depth=1
	add	x19, x19, #16
	add	x20, x20, #16
	cmp	x19, x21
	b.ne	LBB21_42
	b	LBB21_15
LBB21_44:
	ldr	x8, [x8, #8]
	ldr	x10, [x1, #8]
	ldrb	w9, [x8, #23]
	sxtb	w11, w9
	ldr	x12, [x8, #8]
	cmp	w11, #0
	csel	x2, x12, x9, lt
	ldrb	w12, [x10, #23]
	sxtb	w11, w12
	ldr	x13, [x10, #8]
	cmp	w11, #0
	csel	x12, x13, x12, lt
	cmp	x2, x12
	b.ne	LBB21_59
; %bb.45:                               ; %_ZNKSt3__112basic_stringIcNS_11char_traitsIcEENS_9allocatorIcEEE4dataEv.exit27.i
	sxtb	w13, w9
	ldr	x12, [x8]
	cmp	w13, #0
	csel	x0, x12, x8, lt
	ldr	x13, [x10]
	cmp	w11, #0
	csel	x1, x13, x10, lt
	tbnz	w9, #7, LBB21_64
; %bb.46:                               ; %.preheader.i
	cbz	x2, LBB21_66
; %bb.47:                               ; %.lr.ph.i.preheader
	ldrb	w10, [x1]
	cmp	w10, w12, uxtb
	b.ne	LBB21_59
; %bb.48:                               ; %.lr.ph133.preheader
	sub	x9, x9, #1
	add	x8, x8, #1
	add	x10, x1, #1
LBB21_49:                               ; %.lr.ph133
                                        ; =>This Inner Loop Header: Depth=1
	cmp	x9, #0
	cset	w0, eq
	cbz	x9, LBB21_15
; %bb.50:                               ; %..lr.ph.i_crit_edge
                                        ;   in Loop: Header=BB21_49 Depth=1
	ldrb	w11, [x8], #1
	ldrb	w12, [x10], #1
	sub	x9, x9, #1
	cmp	w11, w12
	b.eq	LBB21_49
	b	LBB21_15
LBB21_51:
	ldrb	w8, [x8, #8]
	ldrb	w9, [x1, #8]
	cmp	w8, w9
	b	LBB21_14
LBB21_52:
	ldr	d0, [x8, #8]
	ldr	d1, [x1, #8]
	fcmp	d0, d1
	b	LBB21_14
LBB21_53:
	ldr	x8, [x8, #8]
	ldr	x9, [x1, #8]
	ldp	x10, x11, [x8]
	ldp	x12, x13, [x9]
	sub	x14, x11, x10
	sub	x13, x13, x12
	cmp	x14, x13
	b.ne	LBB21_59
; %bb.54:
	cmp	x10, x11
	b.eq	LBB21_57
LBB21_55:                               ; %.lr.ph.i.i.i.i.i.i.i.i
                                        ; =>This Inner Loop Header: Depth=1
	ldrb	w13, [x10]
	ldrb	w14, [x12]
	cmp	w13, w14
	b.ne	LBB21_59
; %bb.56:                               ;   in Loop: Header=BB21_55 Depth=1
	add	x10, x10, #1
	add	x12, x12, #1
	cmp	x10, x11
	b.ne	LBB21_55
LBB21_57:                               ; %_ZNSt3__113__tuple_equalILm2EEclINS_5tupleIJRKNS_6vectorIhNS_9allocatorIhEEEERKyRKbEEESE_EEbRKT_RKT0_.exit.i.i.i
	ldr	x10, [x8, #24]
	ldr	x11, [x9, #24]
	cmp	x10, x11
	b.ne	LBB21_59
; %bb.58:
	ldrb	w8, [x8, #32]
	ldrb	w9, [x9, #32]
	cmp	w8, w9
	b	LBB21_14
LBB21_59:
	mov	w0, #0
	ldp	x29, x30, [sp, #32]             ; 16-byte Folded Reload
	ldp	x20, x19, [sp, #16]             ; 16-byte Folded Reload
	ldp	x22, x21, [sp], #48             ; 16-byte Folded Reload
	ret
LBB21_60:
	cmp	w9, #6
	b.ne	LBB21_62
; %bb.61:
	cmp	w10, #5
	b.eq	LBB21_3
LBB21_62:
	mov	w0, #0
	cmp	w9, #5
	b.ne	LBB21_15
; %bb.63:
	cmp	w10, #6
	b.eq	LBB21_3
	b	LBB21_15
LBB21_64:
	cbz	x2, LBB21_66
; %bb.65:
	bl	_memcmp
	cmp	w0, #0
	b	LBB21_14
LBB21_66:
	mov	w0, #1
	ldp	x29, x30, [sp, #32]             ; 16-byte Folded Reload
	ldp	x20, x19, [sp, #16]             ; 16-byte Folded Reload
	ldp	x22, x21, [sp], #48             ; 16-byte Folded Reload
	ret
	.loh AdrpAdd	Lloh111, Lloh112
	.cfi_endproc
	.section	__TEXT,__const
lJTI21_0:
	.byte	(LBB21_15-LBB21_3)>>2
	.byte	(LBB21_16-LBB21_3)>>2
	.byte	(LBB21_40-LBB21_3)>>2
	.byte	(LBB21_44-LBB21_3)>>2
	.byte	(LBB21_51-LBB21_3)>>2
	.byte	(LBB21_3-LBB21_3)>>2
	.byte	(LBB21_3-LBB21_3)>>2
	.byte	(LBB21_52-LBB21_3)>>2
	.byte	(LBB21_53-LBB21_3)>>2
                                        ; -- End function
	.section	__TEXT,__text,regular,pure_instructions
	.globl	__ZNK8nlohmann6detail9iter_implINS_10basic_jsonINSt3__13mapENS3_6vectorENS3_12basic_stringIcNS3_11char_traitsIcEENS3_9allocatorIcEEEEbxydS9_NS_14adl_serializerENS5_IhNS9_IhEEEEEEEdeEv ; -- Begin function _ZNK8nlohmann6detail9iter_implINS_10basic_jsonINSt3__13mapENS3_6vectorENS3_12basic_stringIcNS3_11char_traitsIcEENS3_9allocatorIcEEEEbxydS9_NS_14adl_serializerENS5_IhNS9_IhEEEEEEEdeEv
	.weak_def_can_be_hidden	__ZNK8nlohmann6detail9iter_implINS_10basic_jsonINSt3__13mapENS3_6vectorENS3_12basic_stringIcNS3_11char_traitsIcEENS3_9allocatorIcEEEEbxydS9_NS_14adl_serializerENS5_IhNS9_IhEEEEEEEdeEv
	.p2align	2
__ZNK8nlohmann6detail9iter_implINS_10basic_jsonINSt3__13mapENS3_6vectorENS3_12basic_stringIcNS3_11char_traitsIcEENS3_9allocatorIcEEEEbxydS9_NS_14adl_serializerENS5_IhNS9_IhEEEEEEEdeEv: ; @_ZNK8nlohmann6detail9iter_implINS_10basic_jsonINSt3__13mapENS3_6vectorENS3_12basic_stringIcNS3_11char_traitsIcEENS3_9allocatorIcEEEEbxydS9_NS_14adl_serializerENS5_IhNS9_IhEEEEEEEdeEv
Lfunc_begin14:
	.cfi_startproc
	.cfi_personality 155, ___gxx_personality_v0
	.cfi_lsda 16, Lexception14
; %bb.0:
	sub	sp, sp, #80
	stp	x22, x21, [sp, #32]             ; 16-byte Folded Spill
	stp	x20, x19, [sp, #48]             ; 16-byte Folded Spill
	stp	x29, x30, [sp, #64]             ; 16-byte Folded Spill
	add	x29, sp, #64
	.cfi_def_cfa w29, 16
	.cfi_offset w30, -8
	.cfi_offset w29, -16
	.cfi_offset w19, -24
	.cfi_offset w20, -32
	.cfi_offset w21, -40
	.cfi_offset w22, -48
	mov	x20, x0
	ldr	x0, [x0]
	cbz	x0, LBB22_11
; %bb.1:
	ldrb	w8, [x0]
	cmp	w8, #1
	b.eq	LBB22_9
; %bb.2:
	cmp	w8, #2
	b.eq	LBB22_7
; %bb.3:
	cbz	w8, LBB22_14
; %bb.4:
	ldr	x8, [x20, #24]
	cbz	x8, LBB22_8
; %bb.5:
	mov	w0, #32
	bl	___cxa_allocate_exception
	mov	x19, x0
	mov	w8, #16
	adrp	x9, l_.str.101@PAGE
	add	x9, x9, l_.str.101@PAGEOFF
	strb	w8, [sp, #23]
	ldr	q0, [x9]
	str	q0, [sp]
	strb	wzr, [sp, #16]
	ldr	x2, [x20]
	mov	w21, #1
Ltmp356:
	mov	x1, sp
	mov	x8, x0
	mov	w0, #214
	bl	__ZN8nlohmann6detail16invalid_iterator6createINS_10basic_jsonINSt3__13mapENS4_6vectorENS4_12basic_stringIcNS4_11char_traitsIcEENS4_9allocatorIcEEEEbxydSA_NS_14adl_serializerENS6_IhNSA_IhEEEEEEEES1_iRKSC_RKT_
Ltmp357:
; %bb.6:
Ltmp358:
	mov	w21, #0
Lloh113:
	adrp	x1, __ZTIN8nlohmann6detail16invalid_iteratorE@PAGE
Lloh114:
	add	x1, x1, __ZTIN8nlohmann6detail16invalid_iteratorE@PAGEOFF
Lloh115:
	adrp	x2, __ZN8nlohmann6detail16invalid_iteratorD1Ev@GOTPAGE
Lloh116:
	ldr	x2, [x2, __ZN8nlohmann6detail16invalid_iteratorD1Ev@GOTPAGEOFF]
	mov	x0, x19
	bl	___cxa_throw
Ltmp359:
	b	LBB22_16
LBB22_7:
	ldr	x8, [x0, #8]
	ldr	x8, [x8, #8]
	ldr	x0, [x20, #16]
	cmp	x0, x8
	b.eq	LBB22_12
LBB22_8:
	ldp	x29, x30, [sp, #64]             ; 16-byte Folded Reload
	ldp	x20, x19, [sp, #48]             ; 16-byte Folded Reload
	ldp	x22, x21, [sp, #32]             ; 16-byte Folded Reload
	add	sp, sp, #80
	ret
LBB22_9:
	ldr	x8, [x0, #8]
	add	x9, x8, #8
	ldr	x8, [x20, #8]
	cmp	x8, x9
	b.eq	LBB22_13
; %bb.10:
	add	x0, x8, #56
	ldp	x29, x30, [sp, #64]             ; 16-byte Folded Reload
	ldp	x20, x19, [sp, #48]             ; 16-byte Folded Reload
	ldp	x22, x21, [sp, #32]             ; 16-byte Folded Reload
	add	sp, sp, #80
	ret
LBB22_11:                               ; %codeRepl
	bl	__ZNK8nlohmann6detail9iter_implINS_10basic_jsonINSt3__13mapENS3_6vectorENS3_12basic_stringIcNS3_11char_traitsIcEENS3_9allocatorIcEEEEbxydS9_NS_14adl_serializerENS5_IhNS9_IhEEEEEEEdeEv.cold.1
LBB22_12:                               ; %codeRepl40
	bl	__ZNK8nlohmann6detail9iter_implINS_10basic_jsonINSt3__13mapENS3_6vectorENS3_12basic_stringIcNS3_11char_traitsIcEENS3_9allocatorIcEEEEbxydS9_NS_14adl_serializerENS5_IhNS9_IhEEEEEEEdeEv.cold.3
LBB22_13:                               ; %codeRepl39
	bl	__ZNK8nlohmann6detail9iter_implINS_10basic_jsonINSt3__13mapENS3_6vectorENS3_12basic_stringIcNS3_11char_traitsIcEENS3_9allocatorIcEEEEbxydS9_NS_14adl_serializerENS5_IhNS9_IhEEEEEEEdeEv.cold.2
LBB22_14:
	mov	w0, #32
	bl	___cxa_allocate_exception
	mov	x19, x0
	mov	w8, #16
	adrp	x9, l_.str.101@PAGE
	add	x9, x9, l_.str.101@PAGEOFF
	strb	w8, [sp, #23]
	ldr	q0, [x9]
	str	q0, [sp]
	strb	wzr, [sp, #16]
	ldr	x2, [x20]
	mov	w21, #1
Ltmp351:
	mov	x1, sp
	mov	x8, x0
	mov	w0, #214
	bl	__ZN8nlohmann6detail16invalid_iterator6createINS_10basic_jsonINSt3__13mapENS4_6vectorENS4_12basic_stringIcNS4_11char_traitsIcEENS4_9allocatorIcEEEEbxydSA_NS_14adl_serializerENS6_IhNSA_IhEEEEEEEES1_iRKSC_RKT_
Ltmp352:
; %bb.15:
Ltmp353:
	mov	w21, #0
Lloh117:
	adrp	x1, __ZTIN8nlohmann6detail16invalid_iteratorE@PAGE
Lloh118:
	add	x1, x1, __ZTIN8nlohmann6detail16invalid_iteratorE@PAGEOFF
Lloh119:
	adrp	x2, __ZN8nlohmann6detail16invalid_iteratorD1Ev@GOTPAGE
Lloh120:
	ldr	x2, [x2, __ZN8nlohmann6detail16invalid_iteratorD1Ev@GOTPAGEOFF]
	mov	x0, x19
	bl	___cxa_throw
Ltmp354:
LBB22_16:
	brk	#0x1
LBB22_17:
Ltmp355:
	mov	x20, x0
	ldrsb	w8, [sp, #23]
	tbnz	w8, #31, LBB22_19
	b	LBB22_20
LBB22_18:
Ltmp360:
	mov	x20, x0
	ldrsb	w8, [sp, #23]
	tbz	w8, #31, LBB22_20
LBB22_19:
	ldr	x0, [sp]
	bl	__ZdlPv
LBB22_20:                               ; %_ZNSt3__112basic_stringIcNS_11char_traitsIcEENS_9allocatorIcEEED1Ev.exit21
	tbz	w21, #0, LBB22_22
; %bb.21:                               ; %.sink.split
	mov	x0, x19
	bl	___cxa_free_exception
LBB22_22:
	mov	x0, x20
	bl	__Unwind_Resume
	.loh AdrpLdrGot	Lloh115, Lloh116
	.loh AdrpAdd	Lloh113, Lloh114
	.loh AdrpLdrGot	Lloh119, Lloh120
	.loh AdrpAdd	Lloh117, Lloh118
Lfunc_end14:
	.cfi_endproc
	.section	__TEXT,__gcc_except_tab
	.p2align	2
GCC_except_table22:
Lexception14:
	.byte	255                             ; @LPStart Encoding = omit
	.byte	255                             ; @TType Encoding = omit
	.byte	1                               ; Call site Encoding = uleb128
	.uleb128 Lcst_end14-Lcst_begin14
Lcst_begin14:
	.uleb128 Lfunc_begin14-Lfunc_begin14    ; >> Call Site 1 <<
	.uleb128 Ltmp356-Lfunc_begin14          ;   Call between Lfunc_begin14 and Ltmp356
	.byte	0                               ;     has no landing pad
	.byte	0                               ;   On action: cleanup
	.uleb128 Ltmp356-Lfunc_begin14          ; >> Call Site 2 <<
	.uleb128 Ltmp359-Ltmp356                ;   Call between Ltmp356 and Ltmp359
	.uleb128 Ltmp360-Lfunc_begin14          ;     jumps to Ltmp360
	.byte	0                               ;   On action: cleanup
	.uleb128 Ltmp359-Lfunc_begin14          ; >> Call Site 3 <<
	.uleb128 Ltmp351-Ltmp359                ;   Call between Ltmp359 and Ltmp351
	.byte	0                               ;     has no landing pad
	.byte	0                               ;   On action: cleanup
	.uleb128 Ltmp351-Lfunc_begin14          ; >> Call Site 4 <<
	.uleb128 Ltmp354-Ltmp351                ;   Call between Ltmp351 and Ltmp354
	.uleb128 Ltmp355-Lfunc_begin14          ;     jumps to Ltmp355
	.byte	0                               ;   On action: cleanup
	.uleb128 Ltmp354-Lfunc_begin14          ; >> Call Site 5 <<
	.uleb128 Lfunc_end14-Ltmp354            ;   Call between Ltmp354 and Lfunc_end14
	.byte	0                               ;     has no landing pad
	.byte	0                               ;   On action: cleanup
Lcst_end14:
	.p2align	2
                                        ; -- End function
	.section	__TEXT,__text,regular,pure_instructions
	.globl	__ZNK8nlohmann10basic_jsonINSt3__13mapENS1_6vectorENS1_12basic_stringIcNS1_11char_traitsIcEENS1_9allocatorIcEEEEbxydS7_NS_14adl_serializerENS3_IhNS7_IhEEEEE16assert_invariantEb ; -- Begin function _ZNK8nlohmann10basic_jsonINSt3__13mapENS1_6vectorENS1_12basic_stringIcNS1_11char_traitsIcEENS1_9allocatorIcEEEEbxydS7_NS_14adl_serializerENS3_IhNS7_IhEEEEE16assert_invariantEb
	.weak_def_can_be_hidden	__ZNK8nlohmann10basic_jsonINSt3__13mapENS1_6vectorENS1_12basic_stringIcNS1_11char_traitsIcEENS1_9allocatorIcEEEEbxydS7_NS_14adl_serializerENS3_IhNS7_IhEEEEE16assert_invariantEb
	.p2align	2
__ZNK8nlohmann10basic_jsonINSt3__13mapENS1_6vectorENS1_12basic_stringIcNS1_11char_traitsIcEENS1_9allocatorIcEEEEbxydS7_NS_14adl_serializerENS3_IhNS7_IhEEEEE16assert_invariantEb: ; @_ZNK8nlohmann10basic_jsonINSt3__13mapENS1_6vectorENS1_12basic_stringIcNS1_11char_traitsIcEENS1_9allocatorIcEEEEbxydS7_NS_14adl_serializerENS3_IhNS7_IhEEEEE16assert_invariantEb
Lfunc_begin15:
	.cfi_startproc
	.cfi_personality 155, ___gxx_personality_v0
	.cfi_lsda 16, Lexception15
; %bb.0:
	stp	x29, x30, [sp, #-16]!           ; 16-byte Folded Spill
	mov	x29, sp
	.cfi_def_cfa w29, 16
	.cfi_offset w30, -8
	.cfi_offset w29, -16
	ldrb	w8, [x0]
	sub	w8, w8, #1
	cmp	w8, #7
	b.hi	LBB23_9
; %bb.1:
Lloh121:
	adrp	x9, lJTI23_0@PAGE
Lloh122:
	add	x9, x9, lJTI23_0@PAGEOFF
	adr	x10, LBB23_2
	ldrb	w11, [x9, x8]
	add	x10, x10, x11, lsl #2
	br	x10
LBB23_2:
	ldr	x8, [x0, #8]
	cbnz	x8, LBB23_9
; %bb.3:
Ltmp367:
Lloh123:
	adrp	x0, l___func__._ZNK8nlohmann10basic_jsonINSt3__13mapENS1_6vectorENS1_12basic_stringIcNS1_11char_traitsIcEENS1_9allocatorIcEEEEbxydS7_NS_14adl_serializerENS3_IhNS7_IhEEEEE16assert_invariantEb@PAGE
Lloh124:
	add	x0, x0, l___func__._ZNK8nlohmann10basic_jsonINSt3__13mapENS1_6vectorENS1_12basic_stringIcNS1_11char_traitsIcEENS1_9allocatorIcEEEEbxydS7_NS_14adl_serializerENS3_IhNS7_IhEEEEE16assert_invariantEb@PAGEOFF
Lloh125:
	adrp	x1, l_.str.12@PAGE
Lloh126:
	add	x1, x1, l_.str.12@PAGEOFF
Lloh127:
	adrp	x3, l_.str.19@PAGE
Lloh128:
	add	x3, x3, l_.str.19@PAGEOFF
	mov	w2, #17842
	bl	___assert_rtn
Ltmp368:
	b	LBB23_11
LBB23_4:
	ldr	x8, [x0, #8]
	cbnz	x8, LBB23_9
; %bb.5:
Ltmp363:
Lloh129:
	adrp	x0, l___func__._ZNK8nlohmann10basic_jsonINSt3__13mapENS1_6vectorENS1_12basic_stringIcNS1_11char_traitsIcEENS1_9allocatorIcEEEEbxydS7_NS_14adl_serializerENS3_IhNS7_IhEEEEE16assert_invariantEb@PAGE
Lloh130:
	add	x0, x0, l___func__._ZNK8nlohmann10basic_jsonINSt3__13mapENS1_6vectorENS1_12basic_stringIcNS1_11char_traitsIcEENS1_9allocatorIcEEEEbxydS7_NS_14adl_serializerENS3_IhNS7_IhEEEEE16assert_invariantEb@PAGEOFF
Lloh131:
	adrp	x1, l_.str.12@PAGE
Lloh132:
	add	x1, x1, l_.str.12@PAGEOFF
Lloh133:
	adrp	x3, l_.str.21@PAGE
Lloh134:
	add	x3, x3, l_.str.21@PAGEOFF
	mov	w2, #17844
	bl	___assert_rtn
Ltmp364:
	b	LBB23_11
LBB23_6:
	ldr	x8, [x0, #8]
	cbnz	x8, LBB23_9
; %bb.7:
Ltmp365:
Lloh135:
	adrp	x0, l___func__._ZNK8nlohmann10basic_jsonINSt3__13mapENS1_6vectorENS1_12basic_stringIcNS1_11char_traitsIcEENS1_9allocatorIcEEEEbxydS7_NS_14adl_serializerENS3_IhNS7_IhEEEEE16assert_invariantEb@PAGE
Lloh136:
	add	x0, x0, l___func__._ZNK8nlohmann10basic_jsonINSt3__13mapENS1_6vectorENS1_12basic_stringIcNS1_11char_traitsIcEENS1_9allocatorIcEEEEbxydS7_NS_14adl_serializerENS3_IhNS7_IhEEEEE16assert_invariantEb@PAGEOFF
Lloh137:
	adrp	x1, l_.str.12@PAGE
Lloh138:
	add	x1, x1, l_.str.12@PAGEOFF
Lloh139:
	adrp	x3, l_.str.20@PAGE
Lloh140:
	add	x3, x3, l_.str.20@PAGEOFF
	mov	w2, #17843
	bl	___assert_rtn
Ltmp366:
	b	LBB23_11
LBB23_8:
	ldr	x8, [x0, #8]
	cbz	x8, LBB23_10
LBB23_9:                                ; %.critedge6
	ldp	x29, x30, [sp], #16             ; 16-byte Folded Reload
	ret
LBB23_10:
Ltmp361:
Lloh141:
	adrp	x0, l___func__._ZNK8nlohmann10basic_jsonINSt3__13mapENS1_6vectorENS1_12basic_stringIcNS1_11char_traitsIcEENS1_9allocatorIcEEEEbxydS7_NS_14adl_serializerENS3_IhNS7_IhEEEEE16assert_invariantEb@PAGE
Lloh142:
	add	x0, x0, l___func__._ZNK8nlohmann10basic_jsonINSt3__13mapENS1_6vectorENS1_12basic_stringIcNS1_11char_traitsIcEENS1_9allocatorIcEEEEbxydS7_NS_14adl_serializerENS3_IhNS7_IhEEEEE16assert_invariantEb@PAGEOFF
Lloh143:
	adrp	x1, l_.str.12@PAGE
Lloh144:
	add	x1, x1, l_.str.12@PAGEOFF
Lloh145:
	adrp	x3, l_.str.22@PAGE
Lloh146:
	add	x3, x3, l_.str.22@PAGEOFF
	mov	w2, #17845
	bl	___assert_rtn
Ltmp362:
LBB23_11:
	brk	#0x1
LBB23_12:
Ltmp369:
	bl	___clang_call_terminate
	.loh AdrpAdd	Lloh121, Lloh122
	.loh AdrpAdd	Lloh127, Lloh128
	.loh AdrpAdd	Lloh125, Lloh126
	.loh AdrpAdd	Lloh123, Lloh124
	.loh AdrpAdd	Lloh133, Lloh134
	.loh AdrpAdd	Lloh131, Lloh132
	.loh AdrpAdd	Lloh129, Lloh130
	.loh AdrpAdd	Lloh139, Lloh140
	.loh AdrpAdd	Lloh137, Lloh138
	.loh AdrpAdd	Lloh135, Lloh136
	.loh AdrpAdd	Lloh145, Lloh146
	.loh AdrpAdd	Lloh143, Lloh144
	.loh AdrpAdd	Lloh141, Lloh142
Lfunc_end15:
	.cfi_endproc
	.section	__TEXT,__const
lJTI23_0:
	.byte	(LBB23_2-LBB23_2)>>2
	.byte	(LBB23_6-LBB23_2)>>2
	.byte	(LBB23_4-LBB23_2)>>2
	.byte	(LBB23_9-LBB23_2)>>2
	.byte	(LBB23_9-LBB23_2)>>2
	.byte	(LBB23_9-LBB23_2)>>2
	.byte	(LBB23_9-LBB23_2)>>2
	.byte	(LBB23_8-LBB23_2)>>2
	.section	__TEXT,__gcc_except_tab
	.p2align	2
GCC_except_table23:
Lexception15:
	.byte	255                             ; @LPStart Encoding = omit
	.byte	155                             ; @TType Encoding = indirect pcrel sdata4
	.uleb128 Lttbase7-Lttbaseref7
Lttbaseref7:
	.byte	1                               ; Call site Encoding = uleb128
	.uleb128 Lcst_end15-Lcst_begin15
Lcst_begin15:
	.uleb128 Ltmp367-Lfunc_begin15          ; >> Call Site 1 <<
	.uleb128 Ltmp362-Ltmp367                ;   Call between Ltmp367 and Ltmp362
	.uleb128 Ltmp369-Lfunc_begin15          ;     jumps to Ltmp369
	.byte	1                               ;   On action: 1
Lcst_end15:
	.byte	1                               ; >> Action Record 1 <<
                                        ;   Catch TypeInfo 1
	.byte	0                               ;   No further actions
	.p2align	2
                                        ; >> Catch TypeInfos <<
	.long	0                               ; TypeInfo 1
Lttbase7:
	.p2align	2
                                        ; -- End function
	.section	__TEXT,__text,regular,pure_instructions
	.globl	__ZN8nlohmann10basic_jsonINSt3__13mapENS1_6vectorENS1_12basic_stringIcNS1_11char_traitsIcEENS1_9allocatorIcEEEEbxydS7_NS_14adl_serializerENS3_IhNS7_IhEEEEE10json_valueC2ENS_6detail7value_tE ; -- Begin function _ZN8nlohmann10basic_jsonINSt3__13mapENS1_6vectorENS1_12basic_stringIcNS1_11char_traitsIcEENS1_9allocatorIcEEEEbxydS7_NS_14adl_serializerENS3_IhNS7_IhEEEEE10json_valueC2ENS_6detail7value_tE
	.weak_def_can_be_hidden	__ZN8nlohmann10basic_jsonINSt3__13mapENS1_6vectorENS1_12basic_stringIcNS1_11char_traitsIcEENS1_9allocatorIcEEEEbxydS7_NS_14adl_serializerENS3_IhNS7_IhEEEEE10json_valueC2ENS_6detail7value_tE
	.p2align	2
__ZN8nlohmann10basic_jsonINSt3__13mapENS1_6vectorENS1_12basic_stringIcNS1_11char_traitsIcEENS1_9allocatorIcEEEEbxydS7_NS_14adl_serializerENS3_IhNS7_IhEEEEE10json_valueC2ENS_6detail7value_tE: ; @_ZN8nlohmann10basic_jsonINSt3__13mapENS1_6vectorENS1_12basic_stringIcNS1_11char_traitsIcEENS1_9allocatorIcEEEEbxydS7_NS_14adl_serializerENS3_IhNS7_IhEEEEE10json_valueC2ENS_6detail7value_tE
	.cfi_startproc
; %bb.0:
	stp	x20, x19, [sp, #-32]!           ; 16-byte Folded Spill
	stp	x29, x30, [sp, #16]             ; 16-byte Folded Spill
	add	x29, sp, #16
	.cfi_def_cfa w29, 16
	.cfi_offset w30, -8
	.cfi_offset w29, -16
	.cfi_offset w19, -24
	.cfi_offset w20, -32
	mov	x19, x0
	cmp	w1, #8
	b.hi	LBB24_2
; %bb.1:
	mov	w8, w1
Lloh147:
	adrp	x9, lJTI24_0@PAGE
Lloh148:
	add	x9, x9, lJTI24_0@PAGEOFF
	adr	x10, LBB24_2
	ldrb	w11, [x9, x8]
	add	x10, x10, x11, lsl #2
	br	x10
LBB24_2:
	str	xzr, [x19]
	mov	x0, x19
	ldp	x29, x30, [sp, #16]             ; 16-byte Folded Reload
	ldp	x20, x19, [sp], #32             ; 16-byte Folded Reload
	ret
LBB24_3:
	mov	w0, #24
	bl	__Znwm
	str	xzr, [x0, #16]
	mov	x8, x0
	str	xzr, [x8, #8]!
	str	x8, [x0]
	str	x0, [x19]
	mov	x0, x19
	ldp	x29, x30, [sp, #16]             ; 16-byte Folded Reload
	ldp	x20, x19, [sp], #32             ; 16-byte Folded Reload
	ret
LBB24_4:
	mov	w0, #24
	bl	__Znwm
	stp	xzr, xzr, [x0, #8]
	str	xzr, [x0]
	str	x0, [x19]
	mov	x0, x19
	ldp	x29, x30, [sp, #16]             ; 16-byte Folded Reload
	ldp	x20, x19, [sp], #32             ; 16-byte Folded Reload
	ret
LBB24_5:                                ; %_ZN8nlohmann10basic_jsonINSt3__13mapENS1_6vectorENS1_12basic_stringIcNS1_11char_traitsIcEENS1_9allocatorIcEEEEbxydS7_NS_14adl_serializerENS3_IhNS7_IhEEEEE6createIS9_JRA1_KcEEEPT_DpOT0_.exit
	mov	w0, #24
	bl	__Znwm
	strb	wzr, [x0, #23]
	strb	wzr, [x0]
	str	x0, [x19]
	mov	x0, x19
	ldp	x29, x30, [sp, #16]             ; 16-byte Folded Reload
	ldp	x20, x19, [sp], #32             ; 16-byte Folded Reload
	ret
LBB24_6:
	strb	wzr, [x19]
	mov	x0, x19
	ldp	x29, x30, [sp, #16]             ; 16-byte Folded Reload
	ldp	x20, x19, [sp], #32             ; 16-byte Folded Reload
	ret
LBB24_7:
	mov	w0, #40
	bl	__Znwm
	movi.2d	v0, #0000000000000000
	stp	q0, q0, [x0]
	strb	wzr, [x0, #32]
	str	x0, [x19]
	mov	x0, x19
	ldp	x29, x30, [sp, #16]             ; 16-byte Folded Reload
	ldp	x20, x19, [sp], #32             ; 16-byte Folded Reload
	ret
	.loh AdrpAdd	Lloh147, Lloh148
	.cfi_endproc
	.section	__TEXT,__const
lJTI24_0:
	.byte	(LBB24_2-LBB24_2)>>2
	.byte	(LBB24_3-LBB24_2)>>2
	.byte	(LBB24_4-LBB24_2)>>2
	.byte	(LBB24_5-LBB24_2)>>2
	.byte	(LBB24_6-LBB24_2)>>2
	.byte	(LBB24_2-LBB24_2)>>2
	.byte	(LBB24_2-LBB24_2)>>2
	.byte	(LBB24_2-LBB24_2)>>2
	.byte	(LBB24_7-LBB24_2)>>2
                                        ; -- End function
	.section	__TEXT,__text,regular,pure_instructions
	.p2align	2                               ; -- Begin function _ZNSt3__1L20__throw_length_errorEPKc
__ZNSt3__1L20__throw_length_errorEPKc:  ; @_ZNSt3__1L20__throw_length_errorEPKc
Lfunc_begin16:
	.cfi_startproc
	.cfi_personality 155, ___gxx_personality_v0
	.cfi_lsda 16, Lexception16
; %bb.0:
	stp	x20, x19, [sp, #-32]!           ; 16-byte Folded Spill
	stp	x29, x30, [sp, #16]             ; 16-byte Folded Spill
	add	x29, sp, #16
	.cfi_def_cfa w29, 16
	.cfi_offset w30, -8
	.cfi_offset w29, -16
	.cfi_offset w19, -24
	.cfi_offset w20, -32
	mov	w0, #16
	bl	___cxa_allocate_exception
	mov	x19, x0
Ltmp370:
	bl	__ZNSt12length_errorC1EPKc
Ltmp371:
; %bb.1:
Lloh149:
	adrp	x1, __ZTISt12length_error@GOTPAGE
Lloh150:
	ldr	x1, [x1, __ZTISt12length_error@GOTPAGEOFF]
Lloh151:
	adrp	x2, __ZNSt12length_errorD1Ev@GOTPAGE
Lloh152:
	ldr	x2, [x2, __ZNSt12length_errorD1Ev@GOTPAGEOFF]
	mov	x0, x19
	bl	___cxa_throw
LBB25_2:
Ltmp372:
	mov	x20, x0
	mov	x0, x19
	bl	___cxa_free_exception
	mov	x0, x20
	bl	__Unwind_Resume
	.loh AdrpLdrGot	Lloh151, Lloh152
	.loh AdrpLdrGot	Lloh149, Lloh150
Lfunc_end16:
	.cfi_endproc
	.section	__TEXT,__gcc_except_tab
	.p2align	2
GCC_except_table25:
Lexception16:
	.byte	255                             ; @LPStart Encoding = omit
	.byte	255                             ; @TType Encoding = omit
	.byte	1                               ; Call site Encoding = uleb128
	.uleb128 Lcst_end16-Lcst_begin16
Lcst_begin16:
	.uleb128 Lfunc_begin16-Lfunc_begin16    ; >> Call Site 1 <<
	.uleb128 Ltmp370-Lfunc_begin16          ;   Call between Lfunc_begin16 and Ltmp370
	.byte	0                               ;     has no landing pad
	.byte	0                               ;   On action: cleanup
	.uleb128 Ltmp370-Lfunc_begin16          ; >> Call Site 2 <<
	.uleb128 Ltmp371-Ltmp370                ;   Call between Ltmp370 and Ltmp371
	.uleb128 Ltmp372-Lfunc_begin16          ;     jumps to Ltmp372
	.byte	0                               ;   On action: cleanup
	.uleb128 Ltmp371-Lfunc_begin16          ; >> Call Site 3 <<
	.uleb128 Lfunc_end16-Ltmp371            ;   Call between Ltmp371 and Lfunc_end16
	.byte	0                               ;     has no landing pad
	.byte	0                               ;   On action: cleanup
Lcst_end16:
	.p2align	2
                                        ; -- End function
	.section	__TEXT,__text,regular,pure_instructions
	.p2align	2                               ; -- Begin function _ZNSt12length_errorC1EPKc
__ZNSt12length_errorC1EPKc:             ; @_ZNSt12length_errorC1EPKc
	.cfi_startproc
; %bb.0:
	stp	x29, x30, [sp, #-16]!           ; 16-byte Folded Spill
	mov	x29, sp
	.cfi_def_cfa w29, 16
	.cfi_offset w30, -8
	.cfi_offset w29, -16
Lloh153:
	adrp	x1, l_.str.14@PAGE
Lloh154:
	add	x1, x1, l_.str.14@PAGEOFF
	bl	__ZNSt11logic_errorC2EPKc
Lloh155:
	adrp	x8, __ZTVSt12length_error@GOTPAGE
Lloh156:
	ldr	x8, [x8, __ZTVSt12length_error@GOTPAGEOFF]
	add	x8, x8, #16
	str	x8, [x0]
	ldp	x29, x30, [sp], #16             ; 16-byte Folded Reload
	ret
	.loh AdrpLdrGot	Lloh155, Lloh156
	.loh AdrpAdd	Lloh153, Lloh154
	.cfi_endproc
                                        ; -- End function
	.globl	__ZN8nlohmann6detail9exception4nameERKNSt3__112basic_stringIcNS2_11char_traitsIcEENS2_9allocatorIcEEEEi ; -- Begin function _ZN8nlohmann6detail9exception4nameERKNSt3__112basic_stringIcNS2_11char_traitsIcEENS2_9allocatorIcEEEEi
	.weak_def_can_be_hidden	__ZN8nlohmann6detail9exception4nameERKNSt3__112basic_stringIcNS2_11char_traitsIcEENS2_9allocatorIcEEEEi
	.p2align	2
__ZN8nlohmann6detail9exception4nameERKNSt3__112basic_stringIcNS2_11char_traitsIcEENS2_9allocatorIcEEEEi: ; @_ZN8nlohmann6detail9exception4nameERKNSt3__112basic_stringIcNS2_11char_traitsIcEENS2_9allocatorIcEEEEi
Lfunc_begin17:
	.cfi_startproc
	.cfi_personality 155, ___gxx_personality_v0
	.cfi_lsda 16, Lexception17
; %bb.0:
	sub	sp, sp, #160
	stp	x22, x21, [sp, #112]            ; 16-byte Folded Spill
	stp	x20, x19, [sp, #128]            ; 16-byte Folded Spill
	stp	x29, x30, [sp, #144]            ; 16-byte Folded Spill
	add	x29, sp, #144
	.cfi_def_cfa w29, 16
	.cfi_offset w30, -8
	.cfi_offset w29, -16
	.cfi_offset w19, -24
	.cfi_offset w20, -32
	.cfi_offset w21, -40
	.cfi_offset w22, -48
	mov	x20, x1
	mov	x1, x0
	mov	x19, x8
Lloh157:
	adrp	x0, l_.str.16@PAGE
Lloh158:
	add	x0, x0, l_.str.16@PAGEOFF
	add	x8, sp, #24
	bl	__ZNSt3__1plIcNS_11char_traitsIcEENS_9allocatorIcEEEENS_12basic_stringIT_T0_T1_EEPKS6_RKS9_
Ltmp373:
Lloh159:
	adrp	x1, l_.str.17@PAGE
Lloh160:
	add	x1, x1, l_.str.17@PAGEOFF
	add	x0, sp, #24
	bl	__ZNSt3__112basic_stringIcNS_11char_traitsIcEENS_9allocatorIcEEE6appendEPKc
Ltmp374:
; %bb.1:
	ldr	q0, [x0]
	ldr	x8, [x0, #16]
	str	x8, [sp, #64]
	str	q0, [sp, #48]
	stp	xzr, xzr, [x0, #8]
	str	xzr, [x0]
Ltmp376:
	mov	x21, sp
	mov	x8, sp
	mov	x0, x20
	bl	__ZNSt3__19to_stringEi
Ltmp377:
; %bb.2:
	ldrb	w8, [sp, #23]
	sxtb	w9, w8
	ldp	x10, x11, [sp]
	cmp	w9, #0
	csel	x1, x10, x21, lt
	csel	x2, x11, x8, lt
Ltmp379:
	add	x0, sp, #48
	bl	__ZNSt3__112basic_stringIcNS_11char_traitsIcEENS_9allocatorIcEEE6appendEPKcm
Ltmp380:
; %bb.3:
	ldr	q0, [x0]
	ldr	x8, [x0, #16]
	stur	x8, [x29, #-48]
	stur	q0, [x29, #-64]
	stp	xzr, xzr, [x0, #8]
	str	xzr, [x0]
Ltmp382:
Lloh161:
	adrp	x1, l_.str.18@PAGE
Lloh162:
	add	x1, x1, l_.str.18@PAGEOFF
	sub	x0, x29, #64
	bl	__ZNSt3__112basic_stringIcNS_11char_traitsIcEENS_9allocatorIcEEE6appendEPKc
Ltmp383:
; %bb.4:
	ldr	q0, [x0]
	str	q0, [x19]
	ldr	x8, [x0, #16]
	str	x8, [x19, #16]
	stp	xzr, xzr, [x0, #8]
	str	xzr, [x0]
	ldursb	w8, [x29, #-41]
	tbnz	w8, #31, LBB27_9
; %bb.5:                                ; %_ZNSt3__112basic_stringIcNS_11char_traitsIcEENS_9allocatorIcEEED1Ev.exit
	ldrsb	w8, [sp, #23]
	tbnz	w8, #31, LBB27_10
LBB27_6:                                ; %_ZNSt3__112basic_stringIcNS_11char_traitsIcEENS_9allocatorIcEEED1Ev.exit10
	ldrsb	w8, [sp, #71]
	tbnz	w8, #31, LBB27_11
LBB27_7:                                ; %_ZNSt3__112basic_stringIcNS_11char_traitsIcEENS_9allocatorIcEEED1Ev.exit11
	ldrsb	w8, [sp, #47]
	tbnz	w8, #31, LBB27_12
LBB27_8:                                ; %_ZNSt3__112basic_stringIcNS_11char_traitsIcEENS_9allocatorIcEEED1Ev.exit12
	ldp	x29, x30, [sp, #144]            ; 16-byte Folded Reload
	ldp	x20, x19, [sp, #128]            ; 16-byte Folded Reload
	ldp	x22, x21, [sp, #112]            ; 16-byte Folded Reload
	add	sp, sp, #160
	ret
LBB27_9:
	ldur	x0, [x29, #-64]
	bl	__ZdlPv
	ldrsb	w8, [sp, #23]
	tbz	w8, #31, LBB27_6
LBB27_10:
	ldr	x0, [sp]
	bl	__ZdlPv
	ldrsb	w8, [sp, #71]
	tbz	w8, #31, LBB27_7
LBB27_11:
	ldr	x0, [sp, #48]
	bl	__ZdlPv
	ldrsb	w8, [sp, #47]
	tbz	w8, #31, LBB27_8
LBB27_12:
	ldr	x0, [sp, #24]
	bl	__ZdlPv
	ldp	x29, x30, [sp, #144]            ; 16-byte Folded Reload
	ldp	x20, x19, [sp, #128]            ; 16-byte Folded Reload
	ldp	x22, x21, [sp, #112]            ; 16-byte Folded Reload
	add	sp, sp, #160
	ret
LBB27_13:
Ltmp384:
	mov	x19, x0
	ldursb	w8, [x29, #-41]
	tbnz	w8, #31, LBB27_18
; %bb.14:                               ; %_ZNSt3__112basic_stringIcNS_11char_traitsIcEENS_9allocatorIcEEED1Ev.exit13
	ldrsb	w8, [sp, #23]
	tbnz	w8, #31, LBB27_20
LBB27_15:                               ; %_ZNSt3__112basic_stringIcNS_11char_traitsIcEENS_9allocatorIcEEED1Ev.exit14
	ldrsb	w8, [sp, #71]
	tbnz	w8, #31, LBB27_22
LBB27_16:                               ; %_ZNSt3__112basic_stringIcNS_11char_traitsIcEENS_9allocatorIcEEED1Ev.exit15
	ldrsb	w8, [sp, #47]
	tbnz	w8, #31, LBB27_24
LBB27_17:                               ; %_ZNSt3__112basic_stringIcNS_11char_traitsIcEENS_9allocatorIcEEED1Ev.exit16
	mov	x0, x19
	bl	__Unwind_Resume
LBB27_18:
	ldur	x0, [x29, #-64]
	bl	__ZdlPv
	ldrsb	w8, [sp, #23]
	tbz	w8, #31, LBB27_15
	b	LBB27_20
LBB27_19:
Ltmp381:
	mov	x19, x0
	ldrsb	w8, [sp, #23]
	tbz	w8, #31, LBB27_15
LBB27_20:
	ldr	x0, [sp]
	bl	__ZdlPv
	ldrsb	w8, [sp, #71]
	tbz	w8, #31, LBB27_16
	b	LBB27_22
LBB27_21:
Ltmp378:
	mov	x19, x0
	ldrsb	w8, [sp, #71]
	tbz	w8, #31, LBB27_16
LBB27_22:
	ldr	x0, [sp, #48]
	bl	__ZdlPv
	ldrsb	w8, [sp, #47]
	tbz	w8, #31, LBB27_17
	b	LBB27_24
LBB27_23:
Ltmp375:
	mov	x19, x0
	ldrsb	w8, [sp, #47]
	tbz	w8, #31, LBB27_17
LBB27_24:
	ldr	x0, [sp, #24]
	bl	__ZdlPv
	mov	x0, x19
	bl	__Unwind_Resume
	.loh AdrpAdd	Lloh159, Lloh160
	.loh AdrpAdd	Lloh157, Lloh158
	.loh AdrpAdd	Lloh161, Lloh162
Lfunc_end17:
	.cfi_endproc
	.section	__TEXT,__gcc_except_tab
	.p2align	2
GCC_except_table27:
Lexception17:
	.byte	255                             ; @LPStart Encoding = omit
	.byte	255                             ; @TType Encoding = omit
	.byte	1                               ; Call site Encoding = uleb128
	.uleb128 Lcst_end17-Lcst_begin17
Lcst_begin17:
	.uleb128 Lfunc_begin17-Lfunc_begin17    ; >> Call Site 1 <<
	.uleb128 Ltmp373-Lfunc_begin17          ;   Call between Lfunc_begin17 and Ltmp373
	.byte	0                               ;     has no landing pad
	.byte	0                               ;   On action: cleanup
	.uleb128 Ltmp373-Lfunc_begin17          ; >> Call Site 2 <<
	.uleb128 Ltmp374-Ltmp373                ;   Call between Ltmp373 and Ltmp374
	.uleb128 Ltmp375-Lfunc_begin17          ;     jumps to Ltmp375
	.byte	0                               ;   On action: cleanup
	.uleb128 Ltmp376-Lfunc_begin17          ; >> Call Site 3 <<
	.uleb128 Ltmp377-Ltmp376                ;   Call between Ltmp376 and Ltmp377
	.uleb128 Ltmp378-Lfunc_begin17          ;     jumps to Ltmp378
	.byte	0                               ;   On action: cleanup
	.uleb128 Ltmp379-Lfunc_begin17          ; >> Call Site 4 <<
	.uleb128 Ltmp380-Ltmp379                ;   Call between Ltmp379 and Ltmp380
	.uleb128 Ltmp381-Lfunc_begin17          ;     jumps to Ltmp381
	.byte	0                               ;   On action: cleanup
	.uleb128 Ltmp382-Lfunc_begin17          ; >> Call Site 5 <<
	.uleb128 Ltmp383-Ltmp382                ;   Call between Ltmp382 and Ltmp383
	.uleb128 Ltmp384-Lfunc_begin17          ;     jumps to Ltmp384
	.byte	0                               ;   On action: cleanup
	.uleb128 Ltmp383-Lfunc_begin17          ; >> Call Site 6 <<
	.uleb128 Lfunc_end17-Ltmp383            ;   Call between Ltmp383 and Lfunc_end17
	.byte	0                               ;     has no landing pad
	.byte	0                               ;   On action: cleanup
Lcst_end17:
	.p2align	2
                                        ; -- End function
	.section	__TEXT,__text,regular,pure_instructions
	.globl	__ZNK8nlohmann6detail9exception4whatEv ; -- Begin function _ZNK8nlohmann6detail9exception4whatEv
	.weak_def_can_be_hidden	__ZNK8nlohmann6detail9exception4whatEv
	.p2align	2
__ZNK8nlohmann6detail9exception4whatEv: ; @_ZNK8nlohmann6detail9exception4whatEv
	.cfi_startproc
; %bb.0:
	add	x0, x0, #16
	b	__ZNKSt13runtime_error4whatEv
	.cfi_endproc
                                        ; -- End function
	.globl	__ZN8nlohmann6detail9exceptionD1Ev ; -- Begin function _ZN8nlohmann6detail9exceptionD1Ev
	.weak_def_can_be_hidden	__ZN8nlohmann6detail9exceptionD1Ev
	.p2align	2
__ZN8nlohmann6detail9exceptionD1Ev:     ; @_ZN8nlohmann6detail9exceptionD1Ev
	.cfi_startproc
; %bb.0:
	stp	x20, x19, [sp, #-32]!           ; 16-byte Folded Spill
	stp	x29, x30, [sp, #16]             ; 16-byte Folded Spill
	add	x29, sp, #16
	.cfi_def_cfa w29, 16
	.cfi_offset w30, -8
	.cfi_offset w29, -16
	.cfi_offset w19, -24
	.cfi_offset w20, -32
	mov	x19, x0
Lloh163:
	adrp	x8, __ZTVN8nlohmann6detail9exceptionE@GOTPAGE
Lloh164:
	ldr	x8, [x8, __ZTVN8nlohmann6detail9exceptionE@GOTPAGEOFF]
	add	x8, x8, #16
	str	x8, [x0], #16
	bl	__ZNSt13runtime_errorD1Ev
	mov	x0, x19
	ldp	x29, x30, [sp, #16]             ; 16-byte Folded Reload
	ldp	x20, x19, [sp], #32             ; 16-byte Folded Reload
	b	__ZNSt9exceptionD2Ev
	.loh AdrpLdrGot	Lloh163, Lloh164
	.cfi_endproc
                                        ; -- End function
	.globl	__ZN8nlohmann6detail9exceptionD0Ev ; -- Begin function _ZN8nlohmann6detail9exceptionD0Ev
	.weak_def_can_be_hidden	__ZN8nlohmann6detail9exceptionD0Ev
	.p2align	2
__ZN8nlohmann6detail9exceptionD0Ev:     ; @_ZN8nlohmann6detail9exceptionD0Ev
	.cfi_startproc
; %bb.0:
	stp	x20, x19, [sp, #-32]!           ; 16-byte Folded Spill
	stp	x29, x30, [sp, #16]             ; 16-byte Folded Spill
	add	x29, sp, #16
	.cfi_def_cfa w29, 16
	.cfi_offset w30, -8
	.cfi_offset w29, -16
	.cfi_offset w19, -24
	.cfi_offset w20, -32
	mov	x19, x0
Lloh165:
	adrp	x8, __ZTVN8nlohmann6detail9exceptionE@GOTPAGE
Lloh166:
	ldr	x8, [x8, __ZTVN8nlohmann6detail9exceptionE@GOTPAGEOFF]
	add	x8, x8, #16
	str	x8, [x0], #16
	bl	__ZNSt13runtime_errorD1Ev
	mov	x0, x19
	bl	__ZNSt9exceptionD2Ev
	ldp	x29, x30, [sp, #16]             ; 16-byte Folded Reload
	ldp	x20, x19, [sp], #32             ; 16-byte Folded Reload
	b	__ZdlPv
	.loh AdrpLdrGot	Lloh165, Lloh166
	.cfi_endproc
                                        ; -- End function
	.p2align	2                               ; -- Begin function _ZNKSt3__112basic_stringIcNS_11char_traitsIcEENS_9allocatorIcEEE20__throw_length_errorEv
__ZNKSt3__112basic_stringIcNS_11char_traitsIcEENS_9allocatorIcEEE20__throw_length_errorEv: ; @_ZNKSt3__112basic_stringIcNS_11char_traitsIcEENS_9allocatorIcEEE20__throw_length_errorEv
	.cfi_startproc
; %bb.0:
	stp	x29, x30, [sp, #-16]!           ; 16-byte Folded Spill
	mov	x29, sp
	.cfi_def_cfa w29, 16
	.cfi_offset w30, -8
	.cfi_offset w29, -16
	bl	__ZNKSt3__121__basic_string_commonILb1EE20__throw_length_errorEv
	.cfi_endproc
                                        ; -- End function
	.globl	__ZN8nlohmann10basic_jsonINSt3__13mapENS1_6vectorENS1_12basic_stringIcNS1_11char_traitsIcEENS1_9allocatorIcEEEEbxydS7_NS_14adl_serializerENS3_IhNS7_IhEEEEE10json_value7destroyENS_6detail7value_tE ; -- Begin function _ZN8nlohmann10basic_jsonINSt3__13mapENS1_6vectorENS1_12basic_stringIcNS1_11char_traitsIcEENS1_9allocatorIcEEEEbxydS7_NS_14adl_serializerENS3_IhNS7_IhEEEEE10json_value7destroyENS_6detail7value_tE
	.weak_def_can_be_hidden	__ZN8nlohmann10basic_jsonINSt3__13mapENS1_6vectorENS1_12basic_stringIcNS1_11char_traitsIcEENS1_9allocatorIcEEEEbxydS7_NS_14adl_serializerENS3_IhNS7_IhEEEEE10json_value7destroyENS_6detail7value_tE
	.p2align	2
__ZN8nlohmann10basic_jsonINSt3__13mapENS1_6vectorENS1_12basic_stringIcNS1_11char_traitsIcEENS1_9allocatorIcEEEEbxydS7_NS_14adl_serializerENS3_IhNS7_IhEEEEE10json_value7destroyENS_6detail7value_tE: ; @_ZN8nlohmann10basic_jsonINSt3__13mapENS1_6vectorENS1_12basic_stringIcNS1_11char_traitsIcEENS1_9allocatorIcEEEEbxydS7_NS_14adl_serializerENS3_IhNS7_IhEEEEE10json_value7destroyENS_6detail7value_tE
Lfunc_begin18:
	.cfi_startproc
	.cfi_personality 155, ___gxx_personality_v0
	.cfi_lsda 16, Lexception18
; %bb.0:
	sub	sp, sp, #128
	stp	x26, x25, [sp, #48]             ; 16-byte Folded Spill
	stp	x24, x23, [sp, #64]             ; 16-byte Folded Spill
	stp	x22, x21, [sp, #80]             ; 16-byte Folded Spill
